
Blue Lamp.elf:     file format elf32-littlearm

Sections:
Idx Name          Size      VMA       LMA       File off  Algn
  0 .isr_vector   000001c8  08000000  08000000  00010000  2**0
                  CONTENTS, ALLOC, LOAD, READONLY, DATA
  1 .text         00002230  080001c8  080001c8  000101c8  2**2
                  CONTENTS, ALLOC, LOAD, READONLY, CODE
  2 .rodata       000e73cc  080023f8  080023f8  000123f8  2**2
                  CONTENTS, ALLOC, LOAD, READONLY, DATA
  3 .ARM.extab    00000000  080e97c4  080e97c4  00100004  2**0
                  CONTENTS
  4 .ARM          00000000  080e97c4  080e97c4  00100004  2**0
                  CONTENTS
  5 .preinit_array 00000000  080e97c4  080e97c4  00100004  2**0
                  CONTENTS, ALLOC, LOAD, DATA
  6 .init_array   00000004  080e97c4  080e97c4  000f97c4  2**2
                  CONTENTS, ALLOC, LOAD, DATA
  7 .fini_array   00000004  080e97c8  080e97c8  000f97c8  2**2
                  CONTENTS, ALLOC, LOAD, DATA
  8 .data         00000004  20000000  080e97cc  00100000  2**0
                  CONTENTS, ALLOC, LOAD, DATA
  9 .bss          0003fc24  20000004  080e97d0  00100004  2**2
                  ALLOC
 10 ._user_heap_stack 00000600  2003fc28  080e97d0  0010fc28  2**0
                  ALLOC
 11 .ARM.attributes 00000030  00000000  00000000  00100004  2**0
                  CONTENTS, READONLY
 12 .debug_info   00001df4  00000000  00000000  00100034  2**0
                  CONTENTS, READONLY, DEBUGGING, OCTETS
 13 .debug_abbrev 00000278  00000000  00000000  00101e28  2**0
                  CONTENTS, READONLY, DEBUGGING, OCTETS
 14 .debug_aranges 00000080  00000000  00000000  001020a0  2**3
                  CONTENTS, READONLY, DEBUGGING, OCTETS
 15 .debug_ranges 00000068  00000000  00000000  00102120  2**3
                  CONTENTS, READONLY, DEBUGGING, OCTETS
 16 .debug_macro  0001b7a6  00000000  00000000  00102188  2**0
                  CONTENTS, READONLY, DEBUGGING, OCTETS
 17 .debug_line   00001dae  00000000  00000000  0011d92e  2**0
                  CONTENTS, READONLY, DEBUGGING, OCTETS
 18 .debug_str    0009b456  00000000  00000000  0011f6dc  2**0
                  CONTENTS, READONLY, DEBUGGING, OCTETS
 19 .comment      00000053  00000000  00000000  001bab32  2**0
                  CONTENTS, READONLY
 20 .debug_frame  00000168  00000000  00000000  001bab88  2**2
                  CONTENTS, READONLY, DEBUGGING, OCTETS

Disassembly of section .text:

080001c8 <__do_global_dtors_aux>:
 80001c8:	b510      	push	{r4, lr}
 80001ca:	4c05      	ldr	r4, [pc, #20]	; (80001e0 <__do_global_dtors_aux+0x18>)
 80001cc:	7823      	ldrb	r3, [r4, #0]
 80001ce:	b933      	cbnz	r3, 80001de <__do_global_dtors_aux+0x16>
 80001d0:	4b04      	ldr	r3, [pc, #16]	; (80001e4 <__do_global_dtors_aux+0x1c>)
 80001d2:	b113      	cbz	r3, 80001da <__do_global_dtors_aux+0x12>
 80001d4:	4804      	ldr	r0, [pc, #16]	; (80001e8 <__do_global_dtors_aux+0x20>)
 80001d6:	f3af 8000 	nop.w
 80001da:	2301      	movs	r3, #1
 80001dc:	7023      	strb	r3, [r4, #0]
 80001de:	bd10      	pop	{r4, pc}
 80001e0:	20000004 	.word	0x20000004
 80001e4:	00000000 	.word	0x00000000
 80001e8:	080023e0 	.word	0x080023e0

080001ec <frame_dummy>:
 80001ec:	b508      	push	{r3, lr}
 80001ee:	4b03      	ldr	r3, [pc, #12]	; (80001fc <frame_dummy+0x10>)
 80001f0:	b11b      	cbz	r3, 80001fa <frame_dummy+0xe>
 80001f2:	4903      	ldr	r1, [pc, #12]	; (8000200 <frame_dummy+0x14>)
 80001f4:	4803      	ldr	r0, [pc, #12]	; (8000204 <frame_dummy+0x18>)
 80001f6:	f3af 8000 	nop.w
 80001fa:	bd08      	pop	{r3, pc}
 80001fc:	00000000 	.word	0x00000000
 8000200:	20000008 	.word	0x20000008
 8000204:	080023e0 	.word	0x080023e0

08000208 <__NVIC_SetPriority>:
  \param [in]      IRQn  Interrupt number.
  \param [in]  priority  Priority to set.
  \note    The priority cannot be set for every processor exception.
 */
__STATIC_INLINE void __NVIC_SetPriority(IRQn_Type IRQn, uint32_t priority)
{
 8000208:	b480      	push	{r7}
 800020a:	b083      	sub	sp, #12
 800020c:	af00      	add	r7, sp, #0
 800020e:	4603      	mov	r3, r0
 8000210:	6039      	str	r1, [r7, #0]
 8000212:	71fb      	strb	r3, [r7, #7]
  if ((int32_t)(IRQn) >= 0)
 8000214:	f997 3007 	ldrsb.w	r3, [r7, #7]
 8000218:	2b00      	cmp	r3, #0
 800021a:	db0a      	blt.n	8000232 <__NVIC_SetPriority+0x2a>
  {
    NVIC->IP[((uint32_t)IRQn)]                = (uint8_t)((priority << (8U - __NVIC_PRIO_BITS)) & (uint32_t)0xFFUL);
 800021c:	683b      	ldr	r3, [r7, #0]
 800021e:	b2da      	uxtb	r2, r3
 8000220:	490c      	ldr	r1, [pc, #48]	; (8000254 <__NVIC_SetPriority+0x4c>)
 8000222:	f997 3007 	ldrsb.w	r3, [r7, #7]
 8000226:	0112      	lsls	r2, r2, #4
 8000228:	b2d2      	uxtb	r2, r2
 800022a:	440b      	add	r3, r1
 800022c:	f883 2300 	strb.w	r2, [r3, #768]	; 0x300
  }
  else
  {
    SCB->SHPR[(((uint32_t)IRQn) & 0xFUL)-4UL] = (uint8_t)((priority << (8U - __NVIC_PRIO_BITS)) & (uint32_t)0xFFUL);
  }
}
 8000230:	e00a      	b.n	8000248 <__NVIC_SetPriority+0x40>
    SCB->SHPR[(((uint32_t)IRQn) & 0xFUL)-4UL] = (uint8_t)((priority << (8U - __NVIC_PRIO_BITS)) & (uint32_t)0xFFUL);
 8000232:	683b      	ldr	r3, [r7, #0]
 8000234:	b2da      	uxtb	r2, r3
 8000236:	4908      	ldr	r1, [pc, #32]	; (8000258 <__NVIC_SetPriority+0x50>)
 8000238:	79fb      	ldrb	r3, [r7, #7]
 800023a:	f003 030f 	and.w	r3, r3, #15
 800023e:	3b04      	subs	r3, #4
 8000240:	0112      	lsls	r2, r2, #4
 8000242:	b2d2      	uxtb	r2, r2
 8000244:	440b      	add	r3, r1
 8000246:	761a      	strb	r2, [r3, #24]
}
 8000248:	bf00      	nop
 800024a:	370c      	adds	r7, #12
 800024c:	46bd      	mov	sp, r7
 800024e:	f85d 7b04 	ldr.w	r7, [sp], #4
 8000252:	4770      	bx	lr
 8000254:	e000e100 	.word	0xe000e100
 8000258:	e000ed00 	.word	0xe000ed00

0800025c <SysTick_Config>:
  \note    When the variable <b>__Vendor_SysTickConfig</b> is set to 1, then the
           function <b>SysTick_Config</b> is not included. In this case, the file <b><i>device</i>.h</b>
           must contain a vendor-specific implementation of this function.
 */
__STATIC_INLINE uint32_t SysTick_Config(uint32_t ticks)
{
 800025c:	b580      	push	{r7, lr}
 800025e:	b082      	sub	sp, #8
 8000260:	af00      	add	r7, sp, #0
 8000262:	6078      	str	r0, [r7, #4]
  if ((ticks - 1UL) > SysTick_LOAD_RELOAD_Msk)
 8000264:	687b      	ldr	r3, [r7, #4]
 8000266:	3b01      	subs	r3, #1
 8000268:	f1b3 7f80 	cmp.w	r3, #16777216	; 0x1000000
 800026c:	d301      	bcc.n	8000272 <SysTick_Config+0x16>
  {
    return (1UL);                                                   /* Reload value impossible */
 800026e:	2301      	movs	r3, #1
 8000270:	e00f      	b.n	8000292 <SysTick_Config+0x36>
  }

  SysTick->LOAD  = (uint32_t)(ticks - 1UL);                         /* set reload register */
 8000272:	4a0a      	ldr	r2, [pc, #40]	; (800029c <SysTick_Config+0x40>)
 8000274:	687b      	ldr	r3, [r7, #4]
 8000276:	3b01      	subs	r3, #1
 8000278:	6053      	str	r3, [r2, #4]
  NVIC_SetPriority (SysTick_IRQn, (1UL << __NVIC_PRIO_BITS) - 1UL); /* set Priority for Systick Interrupt */
 800027a:	210f      	movs	r1, #15
 800027c:	f04f 30ff 	mov.w	r0, #4294967295
 8000280:	f7ff ffc2 	bl	8000208 <__NVIC_SetPriority>
  SysTick->VAL   = 0UL;                                             /* Load the SysTick Counter Value */
 8000284:	4b05      	ldr	r3, [pc, #20]	; (800029c <SysTick_Config+0x40>)
 8000286:	2200      	movs	r2, #0
 8000288:	609a      	str	r2, [r3, #8]
  SysTick->CTRL  = SysTick_CTRL_CLKSOURCE_Msk |
 800028a:	4b04      	ldr	r3, [pc, #16]	; (800029c <SysTick_Config+0x40>)
 800028c:	2207      	movs	r2, #7
 800028e:	601a      	str	r2, [r3, #0]
                   SysTick_CTRL_TICKINT_Msk   |
                   SysTick_CTRL_ENABLE_Msk;                         /* Enable SysTick IRQ and SysTick Timer */
  return (0UL);                                                     /* Function successful */
 8000290:	2300      	movs	r3, #0
}
 8000292:	4618      	mov	r0, r3
 8000294:	3708      	adds	r7, #8
 8000296:	46bd      	mov	sp, r7
 8000298:	bd80      	pop	{r7, pc}
 800029a:	bf00      	nop
 800029c:	e000e010 	.word	0xe000e010

080002a0 <initialization>:
uint8_t hour = 9;
uint8_t hour_2 = 9;


void initialization()
{
 80002a0:	b480      	push	{r7}
 80002a2:	b083      	sub	sp, #12
 80002a4:	af00      	add	r7, sp, #0
	RCC->APB2ENR |= RCC_APB2ENR_SYSCFGEN;
 80002a6:	4b9f      	ldr	r3, [pc, #636]	; (8000524 <initialization+0x284>)
 80002a8:	6c5b      	ldr	r3, [r3, #68]	; 0x44
 80002aa:	4a9e      	ldr	r2, [pc, #632]	; (8000524 <initialization+0x284>)
 80002ac:	f443 4380 	orr.w	r3, r3, #16384	; 0x4000
 80002b0:	6453      	str	r3, [r2, #68]	; 0x44
	RCC->APB2ENR |= RCC_APB2ENR_LTDCEN;
 80002b2:	4b9c      	ldr	r3, [pc, #624]	; (8000524 <initialization+0x284>)
 80002b4:	6c5b      	ldr	r3, [r3, #68]	; 0x44
 80002b6:	4a9b      	ldr	r2, [pc, #620]	; (8000524 <initialization+0x284>)
 80002b8:	f043 6380 	orr.w	r3, r3, #67108864	; 0x4000000
 80002bc:	6453      	str	r3, [r2, #68]	; 0x44
	RCC->AHB1ENR |= RCC_AHB1ENR_GPIOCEN;
 80002be:	4b99      	ldr	r3, [pc, #612]	; (8000524 <initialization+0x284>)
 80002c0:	6b1b      	ldr	r3, [r3, #48]	; 0x30
 80002c2:	4a98      	ldr	r2, [pc, #608]	; (8000524 <initialization+0x284>)
 80002c4:	f043 0304 	orr.w	r3, r3, #4
 80002c8:	6313      	str	r3, [r2, #48]	; 0x30
	RCC->AHB1ENR |= RCC_AHB1ENR_GPIOEEN;
 80002ca:	4b96      	ldr	r3, [pc, #600]	; (8000524 <initialization+0x284>)
 80002cc:	6b1b      	ldr	r3, [r3, #48]	; 0x30
 80002ce:	4a95      	ldr	r2, [pc, #596]	; (8000524 <initialization+0x284>)
 80002d0:	f043 0310 	orr.w	r3, r3, #16
 80002d4:	6313      	str	r3, [r2, #48]	; 0x30
	RCC->AHB1ENR |= RCC_AHB1ENR_GPIOJEN;
 80002d6:	4b93      	ldr	r3, [pc, #588]	; (8000524 <initialization+0x284>)
 80002d8:	6b1b      	ldr	r3, [r3, #48]	; 0x30
 80002da:	4a92      	ldr	r2, [pc, #584]	; (8000524 <initialization+0x284>)
 80002dc:	f443 7300 	orr.w	r3, r3, #512	; 0x200
 80002e0:	6313      	str	r3, [r2, #48]	; 0x30
	RCC->AHB1ENR |= RCC_AHB1ENR_GPIOKEN;
 80002e2:	4b90      	ldr	r3, [pc, #576]	; (8000524 <initialization+0x284>)
 80002e4:	6b1b      	ldr	r3, [r3, #48]	; 0x30
 80002e6:	4a8f      	ldr	r2, [pc, #572]	; (8000524 <initialization+0x284>)
 80002e8:	f443 6380 	orr.w	r3, r3, #1024	; 0x400
 80002ec:	6313      	str	r3, [r2, #48]	; 0x30
	RCC->AHB1ENR |= RCC_AHB1ENR_GPIOIEN;
 80002ee:	4b8d      	ldr	r3, [pc, #564]	; (8000524 <initialization+0x284>)
 80002f0:	6b1b      	ldr	r3, [r3, #48]	; 0x30
 80002f2:	4a8c      	ldr	r2, [pc, #560]	; (8000524 <initialization+0x284>)
 80002f4:	f443 7380 	orr.w	r3, r3, #256	; 0x100
 80002f8:	6313      	str	r3, [r2, #48]	; 0x30

	RCC->CR |= RCC_CR_HSEON;
 80002fa:	4b8a      	ldr	r3, [pc, #552]	; (8000524 <initialization+0x284>)
 80002fc:	681b      	ldr	r3, [r3, #0]
 80002fe:	4a89      	ldr	r2, [pc, #548]	; (8000524 <initialization+0x284>)
 8000300:	f443 3380 	orr.w	r3, r3, #65536	; 0x10000
 8000304:	6013      	str	r3, [r2, #0]
	while (!(RCC->CR & RCC_CR_HSERDY));
 8000306:	bf00      	nop
 8000308:	4b86      	ldr	r3, [pc, #536]	; (8000524 <initialization+0x284>)
 800030a:	681b      	ldr	r3, [r3, #0]
 800030c:	f403 3300 	and.w	r3, r3, #131072	; 0x20000
 8000310:	2b00      	cmp	r3, #0
 8000312:	d0f9      	beq.n	8000308 <initialization+0x68>
	FLASH->ACR |= FLASH_ACR_LATENCY_5WS;
 8000314:	4b84      	ldr	r3, [pc, #528]	; (8000528 <initialization+0x288>)
 8000316:	681b      	ldr	r3, [r3, #0]
 8000318:	4a83      	ldr	r2, [pc, #524]	; (8000528 <initialization+0x288>)
 800031a:	f043 0305 	orr.w	r3, r3, #5
 800031e:	6013      	str	r3, [r2, #0]
	RCC->PLLCFGR |= RCC_PLLCFGR_PLLM_0 | RCC_PLLCFGR_PLLM_3 | RCC_PLLCFGR_PLLM_4;
 8000320:	4b80      	ldr	r3, [pc, #512]	; (8000524 <initialization+0x284>)
 8000322:	685b      	ldr	r3, [r3, #4]
 8000324:	4a7f      	ldr	r2, [pc, #508]	; (8000524 <initialization+0x284>)
 8000326:	f043 0319 	orr.w	r3, r3, #25
 800032a:	6053      	str	r3, [r2, #4]
	RCC->PLLCFGR |= RCC_PLLCFGR_PLLN_4 | RCC_PLLCFGR_PLLN_5 | RCC_PLLCFGR_PLLN_7 | RCC_PLLCFGR_PLLN_8;
 800032c:	4b7d      	ldr	r3, [pc, #500]	; (8000524 <initialization+0x284>)
 800032e:	685b      	ldr	r3, [r3, #4]
 8000330:	4a7c      	ldr	r2, [pc, #496]	; (8000524 <initialization+0x284>)
 8000332:	f443 43d8 	orr.w	r3, r3, #27648	; 0x6c00
 8000336:	6053      	str	r3, [r2, #4]
	RCC->PLLCFGR &= ~RCC_PLLCFGR_PLLN_6;
 8000338:	4b7a      	ldr	r3, [pc, #488]	; (8000524 <initialization+0x284>)
 800033a:	685b      	ldr	r3, [r3, #4]
 800033c:	4a79      	ldr	r2, [pc, #484]	; (8000524 <initialization+0x284>)
 800033e:	f423 5380 	bic.w	r3, r3, #4096	; 0x1000
 8000342:	6053      	str	r3, [r2, #4]
	RCC->PLLCFGR |= RCC_PLLCFGR_PLLP_0;
 8000344:	4b77      	ldr	r3, [pc, #476]	; (8000524 <initialization+0x284>)
 8000346:	685b      	ldr	r3, [r3, #4]
 8000348:	4a76      	ldr	r2, [pc, #472]	; (8000524 <initialization+0x284>)
 800034a:	f443 3380 	orr.w	r3, r3, #65536	; 0x10000
 800034e:	6053      	str	r3, [r2, #4]
	RCC->CFGR |= RCC_CFGR_PPRE1_2 | RCC_CFGR_PPRE2_2;
 8000350:	4b74      	ldr	r3, [pc, #464]	; (8000524 <initialization+0x284>)
 8000352:	689b      	ldr	r3, [r3, #8]
 8000354:	4a73      	ldr	r2, [pc, #460]	; (8000524 <initialization+0x284>)
 8000356:	f443 4310 	orr.w	r3, r3, #36864	; 0x9000
 800035a:	6093      	str	r3, [r2, #8]
	RCC->PLLCFGR |= RCC_PLLCFGR_PLLSRC;
 800035c:	4b71      	ldr	r3, [pc, #452]	; (8000524 <initialization+0x284>)
 800035e:	685b      	ldr	r3, [r3, #4]
 8000360:	4a70      	ldr	r2, [pc, #448]	; (8000524 <initialization+0x284>)
 8000362:	f443 0380 	orr.w	r3, r3, #4194304	; 0x400000
 8000366:	6053      	str	r3, [r2, #4]
	RCC->CR |= RCC_CR_PLLON;
 8000368:	4b6e      	ldr	r3, [pc, #440]	; (8000524 <initialization+0x284>)
 800036a:	681b      	ldr	r3, [r3, #0]
 800036c:	4a6d      	ldr	r2, [pc, #436]	; (8000524 <initialization+0x284>)
 800036e:	f043 7380 	orr.w	r3, r3, #16777216	; 0x1000000
 8000372:	6013      	str	r3, [r2, #0]
	while((RCC->CR & RCC_CR_PLLRDY) == 0);
 8000374:	bf00      	nop
 8000376:	4b6b      	ldr	r3, [pc, #428]	; (8000524 <initialization+0x284>)
 8000378:	681b      	ldr	r3, [r3, #0]
 800037a:	f003 7300 	and.w	r3, r3, #33554432	; 0x2000000
 800037e:	2b00      	cmp	r3, #0
 8000380:	d0f9      	beq.n	8000376 <initialization+0xd6>
	RCC->CFGR |= RCC_CFGR_SW_PLL;
 8000382:	4b68      	ldr	r3, [pc, #416]	; (8000524 <initialization+0x284>)
 8000384:	689b      	ldr	r3, [r3, #8]
 8000386:	4a67      	ldr	r2, [pc, #412]	; (8000524 <initialization+0x284>)
 8000388:	f043 0302 	orr.w	r3, r3, #2
 800038c:	6093      	str	r3, [r2, #8]
	while((RCC->CFGR & RCC_CFGR_SWS) != RCC_CFGR_SWS_1);
 800038e:	bf00      	nop
 8000390:	4b64      	ldr	r3, [pc, #400]	; (8000524 <initialization+0x284>)
 8000392:	689b      	ldr	r3, [r3, #8]
 8000394:	f003 030c 	and.w	r3, r3, #12
 8000398:	2b08      	cmp	r3, #8
 800039a:	d1f9      	bne.n	8000390 <initialization+0xf0>
	RCC->PLLSAICFGR |= RCC_PLLSAICFGR_PLLSAIN_6 | RCC_PLLSAICFGR_PLLSAIN_7;
 800039c:	4b61      	ldr	r3, [pc, #388]	; (8000524 <initialization+0x284>)
 800039e:	f8d3 3088 	ldr.w	r3, [r3, #136]	; 0x88
 80003a2:	4a60      	ldr	r2, [pc, #384]	; (8000524 <initialization+0x284>)
 80003a4:	f443 5340 	orr.w	r3, r3, #12288	; 0x3000
 80003a8:	f8c2 3088 	str.w	r3, [r2, #136]	; 0x88
	RCC->PLLSAICFGR |= RCC_PLLSAICFGR_PLLSAIR_0 | RCC_PLLSAICFGR_PLLSAIR_2;
 80003ac:	4b5d      	ldr	r3, [pc, #372]	; (8000524 <initialization+0x284>)
 80003ae:	f8d3 3088 	ldr.w	r3, [r3, #136]	; 0x88
 80003b2:	4a5c      	ldr	r2, [pc, #368]	; (8000524 <initialization+0x284>)
 80003b4:	f043 43a0 	orr.w	r3, r3, #1342177280	; 0x50000000
 80003b8:	f8c2 3088 	str.w	r3, [r2, #136]	; 0x88
	RCC->DCKCFGR1 	|= RCC_DCKCFGR1_PLLSAIDIVR_0;
 80003bc:	4b59      	ldr	r3, [pc, #356]	; (8000524 <initialization+0x284>)
 80003be:	f8d3 308c 	ldr.w	r3, [r3, #140]	; 0x8c
 80003c2:	4a58      	ldr	r2, [pc, #352]	; (8000524 <initialization+0x284>)
 80003c4:	f443 3380 	orr.w	r3, r3, #65536	; 0x10000
 80003c8:	f8c2 308c 	str.w	r3, [r2, #140]	; 0x8c
	RCC->DCKCFGR1 	&= ~RCC_DCKCFGR1_PLLSAIDIVR_1;
 80003cc:	4b55      	ldr	r3, [pc, #340]	; (8000524 <initialization+0x284>)
 80003ce:	f8d3 308c 	ldr.w	r3, [r3, #140]	; 0x8c
 80003d2:	4a54      	ldr	r2, [pc, #336]	; (8000524 <initialization+0x284>)
 80003d4:	f423 3300 	bic.w	r3, r3, #131072	; 0x20000
 80003d8:	f8c2 308c 	str.w	r3, [r2, #140]	; 0x8c
	RCC->CR |= RCC_CR_PLLSAION;
 80003dc:	4b51      	ldr	r3, [pc, #324]	; (8000524 <initialization+0x284>)
 80003de:	681b      	ldr	r3, [r3, #0]
 80003e0:	4a50      	ldr	r2, [pc, #320]	; (8000524 <initialization+0x284>)
 80003e2:	f043 5380 	orr.w	r3, r3, #268435456	; 0x10000000
 80003e6:	6013      	str	r3, [r2, #0]
	while ((RCC->CR & RCC_CR_PLLSAIRDY) == 0);
 80003e8:	bf00      	nop
 80003ea:	4b4e      	ldr	r3, [pc, #312]	; (8000524 <initialization+0x284>)
 80003ec:	681b      	ldr	r3, [r3, #0]
 80003ee:	f003 5300 	and.w	r3, r3, #536870912	; 0x20000000
 80003f2:	2b00      	cmp	r3, #0
 80003f4:	d0f9      	beq.n	80003ea <initialization+0x14a>

	//B0 PE4
	GPIOE->MODER   &= ~GPIO_MODER_MODER4;
 80003f6:	4b4d      	ldr	r3, [pc, #308]	; (800052c <initialization+0x28c>)
 80003f8:	681b      	ldr	r3, [r3, #0]
 80003fa:	4a4c      	ldr	r2, [pc, #304]	; (800052c <initialization+0x28c>)
 80003fc:	f423 7340 	bic.w	r3, r3, #768	; 0x300
 8000400:	6013      	str	r3, [r2, #0]
	GPIOE->MODER   |= GPIO_MODER_MODER4_1;
 8000402:	4b4a      	ldr	r3, [pc, #296]	; (800052c <initialization+0x28c>)
 8000404:	681b      	ldr	r3, [r3, #0]
 8000406:	4a49      	ldr	r2, [pc, #292]	; (800052c <initialization+0x28c>)
 8000408:	f443 7300 	orr.w	r3, r3, #512	; 0x200
 800040c:	6013      	str	r3, [r2, #0]
	GPIOE->OSPEEDR |= GPIO_OSPEEDER_OSPEEDR4_1;
 800040e:	4b47      	ldr	r3, [pc, #284]	; (800052c <initialization+0x28c>)
 8000410:	689b      	ldr	r3, [r3, #8]
 8000412:	4a46      	ldr	r2, [pc, #280]	; (800052c <initialization+0x28c>)
 8000414:	f443 7300 	orr.w	r3, r3, #512	; 0x200
 8000418:	6093      	str	r3, [r2, #8]
	GPIOE->AFR[0] &= ~GPIO_AFRL_AFRL4_0;
 800041a:	4b44      	ldr	r3, [pc, #272]	; (800052c <initialization+0x28c>)
 800041c:	6a1b      	ldr	r3, [r3, #32]
 800041e:	4a43      	ldr	r2, [pc, #268]	; (800052c <initialization+0x28c>)
 8000420:	f423 3380 	bic.w	r3, r3, #65536	; 0x10000
 8000424:	6213      	str	r3, [r2, #32]
	GPIOE->AFR[0] |= GPIO_AFRL_AFRL4_1 | GPIO_AFRL_AFRL4_2 | GPIO_AFRL_AFRL4_3;
 8000426:	4b41      	ldr	r3, [pc, #260]	; (800052c <initialization+0x28c>)
 8000428:	6a1b      	ldr	r3, [r3, #32]
 800042a:	4a40      	ldr	r2, [pc, #256]	; (800052c <initialization+0x28c>)
 800042c:	f443 2360 	orr.w	r3, r3, #917504	; 0xe0000
 8000430:	6213      	str	r3, [r2, #32]

	//B1 PJ13
	GPIOJ->MODER   &= ~GPIO_MODER_MODER13;
 8000432:	4b3f      	ldr	r3, [pc, #252]	; (8000530 <initialization+0x290>)
 8000434:	681b      	ldr	r3, [r3, #0]
 8000436:	4a3e      	ldr	r2, [pc, #248]	; (8000530 <initialization+0x290>)
 8000438:	f023 6340 	bic.w	r3, r3, #201326592	; 0xc000000
 800043c:	6013      	str	r3, [r2, #0]
	GPIOJ->MODER   |= GPIO_MODER_MODER13_1;
 800043e:	4b3c      	ldr	r3, [pc, #240]	; (8000530 <initialization+0x290>)
 8000440:	681b      	ldr	r3, [r3, #0]
 8000442:	4a3b      	ldr	r2, [pc, #236]	; (8000530 <initialization+0x290>)
 8000444:	f043 6300 	orr.w	r3, r3, #134217728	; 0x8000000
 8000448:	6013      	str	r3, [r2, #0]
	GPIOJ->OSPEEDR |= GPIO_OSPEEDER_OSPEEDR13_1;
 800044a:	4b39      	ldr	r3, [pc, #228]	; (8000530 <initialization+0x290>)
 800044c:	689b      	ldr	r3, [r3, #8]
 800044e:	4a38      	ldr	r2, [pc, #224]	; (8000530 <initialization+0x290>)
 8000450:	f043 6300 	orr.w	r3, r3, #134217728	; 0x8000000
 8000454:	6093      	str	r3, [r2, #8]
	GPIOJ->AFR[1] &= ~GPIO_AFRL_AFRL5_0;
 8000456:	4b36      	ldr	r3, [pc, #216]	; (8000530 <initialization+0x290>)
 8000458:	6a5b      	ldr	r3, [r3, #36]	; 0x24
 800045a:	4a35      	ldr	r2, [pc, #212]	; (8000530 <initialization+0x290>)
 800045c:	f423 1380 	bic.w	r3, r3, #1048576	; 0x100000
 8000460:	6253      	str	r3, [r2, #36]	; 0x24
	GPIOJ->AFR[1] |= GPIO_AFRL_AFRL5_1 | GPIO_AFRL_AFRL5_2 | GPIO_AFRL_AFRL5_3;
 8000462:	4b33      	ldr	r3, [pc, #204]	; (8000530 <initialization+0x290>)
 8000464:	6a5b      	ldr	r3, [r3, #36]	; 0x24
 8000466:	4a32      	ldr	r2, [pc, #200]	; (8000530 <initialization+0x290>)
 8000468:	f443 0360 	orr.w	r3, r3, #14680064	; 0xe00000
 800046c:	6253      	str	r3, [r2, #36]	; 0x24

	//B2 PJ14
	GPIOJ->MODER   &= ~GPIO_MODER_MODER14;
 800046e:	4b30      	ldr	r3, [pc, #192]	; (8000530 <initialization+0x290>)
 8000470:	681b      	ldr	r3, [r3, #0]
 8000472:	4a2f      	ldr	r2, [pc, #188]	; (8000530 <initialization+0x290>)
 8000474:	f023 5340 	bic.w	r3, r3, #805306368	; 0x30000000
 8000478:	6013      	str	r3, [r2, #0]
	GPIOJ->MODER   |= GPIO_MODER_MODER14_1;
 800047a:	4b2d      	ldr	r3, [pc, #180]	; (8000530 <initialization+0x290>)
 800047c:	681b      	ldr	r3, [r3, #0]
 800047e:	4a2c      	ldr	r2, [pc, #176]	; (8000530 <initialization+0x290>)
 8000480:	f043 5300 	orr.w	r3, r3, #536870912	; 0x20000000
 8000484:	6013      	str	r3, [r2, #0]
	GPIOJ->OSPEEDR |= GPIO_OSPEEDER_OSPEEDR14_1;
 8000486:	4b2a      	ldr	r3, [pc, #168]	; (8000530 <initialization+0x290>)
 8000488:	689b      	ldr	r3, [r3, #8]
 800048a:	4a29      	ldr	r2, [pc, #164]	; (8000530 <initialization+0x290>)
 800048c:	f043 5300 	orr.w	r3, r3, #536870912	; 0x20000000
 8000490:	6093      	str	r3, [r2, #8]
	GPIOJ->AFR[1] &= ~GPIO_AFRL_AFRL6_0;
 8000492:	4b27      	ldr	r3, [pc, #156]	; (8000530 <initialization+0x290>)
 8000494:	6a5b      	ldr	r3, [r3, #36]	; 0x24
 8000496:	4a26      	ldr	r2, [pc, #152]	; (8000530 <initialization+0x290>)
 8000498:	f023 7380 	bic.w	r3, r3, #16777216	; 0x1000000
 800049c:	6253      	str	r3, [r2, #36]	; 0x24
	GPIOJ->AFR[1] |= GPIO_AFRL_AFRL6_1 | GPIO_AFRL_AFRL6_2 | GPIO_AFRL_AFRL6_3;
 800049e:	4b24      	ldr	r3, [pc, #144]	; (8000530 <initialization+0x290>)
 80004a0:	6a5b      	ldr	r3, [r3, #36]	; 0x24
 80004a2:	4a23      	ldr	r2, [pc, #140]	; (8000530 <initialization+0x290>)
 80004a4:	f043 6360 	orr.w	r3, r3, #234881024	; 0xe000000
 80004a8:	6253      	str	r3, [r2, #36]	; 0x24

	//B3 PJ15
	GPIOJ->MODER   &= ~GPIO_MODER_MODER15;
 80004aa:	4b21      	ldr	r3, [pc, #132]	; (8000530 <initialization+0x290>)
 80004ac:	681b      	ldr	r3, [r3, #0]
 80004ae:	4a20      	ldr	r2, [pc, #128]	; (8000530 <initialization+0x290>)
 80004b0:	f023 4340 	bic.w	r3, r3, #3221225472	; 0xc0000000
 80004b4:	6013      	str	r3, [r2, #0]
	GPIOJ->MODER   |= GPIO_MODER_MODER15_1;
 80004b6:	4b1e      	ldr	r3, [pc, #120]	; (8000530 <initialization+0x290>)
 80004b8:	681b      	ldr	r3, [r3, #0]
 80004ba:	4a1d      	ldr	r2, [pc, #116]	; (8000530 <initialization+0x290>)
 80004bc:	f043 4300 	orr.w	r3, r3, #2147483648	; 0x80000000
 80004c0:	6013      	str	r3, [r2, #0]
	GPIOJ->OSPEEDR |= GPIO_OSPEEDER_OSPEEDR15_1;
 80004c2:	4b1b      	ldr	r3, [pc, #108]	; (8000530 <initialization+0x290>)
 80004c4:	689b      	ldr	r3, [r3, #8]
 80004c6:	4a1a      	ldr	r2, [pc, #104]	; (8000530 <initialization+0x290>)
 80004c8:	f043 4300 	orr.w	r3, r3, #2147483648	; 0x80000000
 80004cc:	6093      	str	r3, [r2, #8]
	GPIOJ->AFR[1] &= ~GPIO_AFRL_AFRL7_0;
 80004ce:	4b18      	ldr	r3, [pc, #96]	; (8000530 <initialization+0x290>)
 80004d0:	6a5b      	ldr	r3, [r3, #36]	; 0x24
 80004d2:	4a17      	ldr	r2, [pc, #92]	; (8000530 <initialization+0x290>)
 80004d4:	f023 5380 	bic.w	r3, r3, #268435456	; 0x10000000
 80004d8:	6253      	str	r3, [r2, #36]	; 0x24
	GPIOJ->AFR[1] |= GPIO_AFRL_AFRL7_1 | GPIO_AFRL_AFRL7_2 | GPIO_AFRL_AFRL7_3;
 80004da:	4b15      	ldr	r3, [pc, #84]	; (8000530 <initialization+0x290>)
 80004dc:	6a5b      	ldr	r3, [r3, #36]	; 0x24
 80004de:	4a14      	ldr	r2, [pc, #80]	; (8000530 <initialization+0x290>)
 80004e0:	f043 4360 	orr.w	r3, r3, #3758096384	; 0xe0000000
 80004e4:	6253      	str	r3, [r2, #36]	; 0x24

	//B4 PJ12
	GPIOJ->MODER   &= ~GPIO_MODER_MODER12;
 80004e6:	4b12      	ldr	r3, [pc, #72]	; (8000530 <initialization+0x290>)
 80004e8:	681b      	ldr	r3, [r3, #0]
 80004ea:	4a11      	ldr	r2, [pc, #68]	; (8000530 <initialization+0x290>)
 80004ec:	f023 7340 	bic.w	r3, r3, #50331648	; 0x3000000
 80004f0:	6013      	str	r3, [r2, #0]
	GPIOJ->MODER   |= GPIO_MODER_MODER12_1;
 80004f2:	4b0f      	ldr	r3, [pc, #60]	; (8000530 <initialization+0x290>)
 80004f4:	681b      	ldr	r3, [r3, #0]
 80004f6:	4a0e      	ldr	r2, [pc, #56]	; (8000530 <initialization+0x290>)
 80004f8:	f043 7300 	orr.w	r3, r3, #33554432	; 0x2000000
 80004fc:	6013      	str	r3, [r2, #0]
	GPIOJ->OSPEEDR |= GPIO_OSPEEDER_OSPEEDR12_1;
 80004fe:	4b0c      	ldr	r3, [pc, #48]	; (8000530 <initialization+0x290>)
 8000500:	689b      	ldr	r3, [r3, #8]
 8000502:	4a0b      	ldr	r2, [pc, #44]	; (8000530 <initialization+0x290>)
 8000504:	f043 7300 	orr.w	r3, r3, #33554432	; 0x2000000
 8000508:	6093      	str	r3, [r2, #8]
	GPIOJ->AFR[1] &= ~GPIO_AFRL_AFRL4_0;
 800050a:	4b09      	ldr	r3, [pc, #36]	; (8000530 <initialization+0x290>)
 800050c:	6a5b      	ldr	r3, [r3, #36]	; 0x24
 800050e:	4a08      	ldr	r2, [pc, #32]	; (8000530 <initialization+0x290>)
 8000510:	f423 3380 	bic.w	r3, r3, #65536	; 0x10000
 8000514:	6253      	str	r3, [r2, #36]	; 0x24
	GPIOJ->AFR[1] |= GPIO_AFRL_AFRL4_1 | GPIO_AFRL_AFRL4_2 | GPIO_AFRL_AFRL4_3;
 8000516:	4b06      	ldr	r3, [pc, #24]	; (8000530 <initialization+0x290>)
 8000518:	6a5b      	ldr	r3, [r3, #36]	; 0x24
 800051a:	4a05      	ldr	r2, [pc, #20]	; (8000530 <initialization+0x290>)
 800051c:	f443 2360 	orr.w	r3, r3, #917504	; 0xe0000
 8000520:	e008      	b.n	8000534 <initialization+0x294>
 8000522:	bf00      	nop
 8000524:	40023800 	.word	0x40023800
 8000528:	40023c00 	.word	0x40023c00
 800052c:	40021000 	.word	0x40021000
 8000530:	40022400 	.word	0x40022400
 8000534:	6253      	str	r3, [r2, #36]	; 0x24

	//B5 PK4
	GPIOK->MODER   &= ~GPIO_MODER_MODER4;
 8000536:	4b99      	ldr	r3, [pc, #612]	; (800079c <initialization+0x4fc>)
 8000538:	681b      	ldr	r3, [r3, #0]
 800053a:	4a98      	ldr	r2, [pc, #608]	; (800079c <initialization+0x4fc>)
 800053c:	f423 7340 	bic.w	r3, r3, #768	; 0x300
 8000540:	6013      	str	r3, [r2, #0]
	GPIOK->MODER   |= GPIO_MODER_MODER4_1;
 8000542:	4b96      	ldr	r3, [pc, #600]	; (800079c <initialization+0x4fc>)
 8000544:	681b      	ldr	r3, [r3, #0]
 8000546:	4a95      	ldr	r2, [pc, #596]	; (800079c <initialization+0x4fc>)
 8000548:	f443 7300 	orr.w	r3, r3, #512	; 0x200
 800054c:	6013      	str	r3, [r2, #0]
	GPIOK->OSPEEDR |= GPIO_OSPEEDER_OSPEEDR4_1;
 800054e:	4b93      	ldr	r3, [pc, #588]	; (800079c <initialization+0x4fc>)
 8000550:	689b      	ldr	r3, [r3, #8]
 8000552:	4a92      	ldr	r2, [pc, #584]	; (800079c <initialization+0x4fc>)
 8000554:	f443 7300 	orr.w	r3, r3, #512	; 0x200
 8000558:	6093      	str	r3, [r2, #8]
	GPIOK->AFR[0] &= ~GPIO_AFRL_AFRL4_0;
 800055a:	4b90      	ldr	r3, [pc, #576]	; (800079c <initialization+0x4fc>)
 800055c:	6a1b      	ldr	r3, [r3, #32]
 800055e:	4a8f      	ldr	r2, [pc, #572]	; (800079c <initialization+0x4fc>)
 8000560:	f423 3380 	bic.w	r3, r3, #65536	; 0x10000
 8000564:	6213      	str	r3, [r2, #32]
	GPIOK->AFR[0] |= GPIO_AFRL_AFRL4_1 | GPIO_AFRL_AFRL4_2 | GPIO_AFRL_AFRL4_3;
 8000566:	4b8d      	ldr	r3, [pc, #564]	; (800079c <initialization+0x4fc>)
 8000568:	6a1b      	ldr	r3, [r3, #32]
 800056a:	4a8c      	ldr	r2, [pc, #560]	; (800079c <initialization+0x4fc>)
 800056c:	f443 2360 	orr.w	r3, r3, #917504	; 0xe0000
 8000570:	6213      	str	r3, [r2, #32]

	//B6 PK5
	GPIOK->MODER   &= ~GPIO_MODER_MODER5;
 8000572:	4b8a      	ldr	r3, [pc, #552]	; (800079c <initialization+0x4fc>)
 8000574:	681b      	ldr	r3, [r3, #0]
 8000576:	4a89      	ldr	r2, [pc, #548]	; (800079c <initialization+0x4fc>)
 8000578:	f423 6340 	bic.w	r3, r3, #3072	; 0xc00
 800057c:	6013      	str	r3, [r2, #0]
	GPIOK->MODER   |= GPIO_MODER_MODER5_1;
 800057e:	4b87      	ldr	r3, [pc, #540]	; (800079c <initialization+0x4fc>)
 8000580:	681b      	ldr	r3, [r3, #0]
 8000582:	4a86      	ldr	r2, [pc, #536]	; (800079c <initialization+0x4fc>)
 8000584:	f443 6300 	orr.w	r3, r3, #2048	; 0x800
 8000588:	6013      	str	r3, [r2, #0]
	GPIOK->OSPEEDR |= GPIO_OSPEEDER_OSPEEDR5_1;
 800058a:	4b84      	ldr	r3, [pc, #528]	; (800079c <initialization+0x4fc>)
 800058c:	689b      	ldr	r3, [r3, #8]
 800058e:	4a83      	ldr	r2, [pc, #524]	; (800079c <initialization+0x4fc>)
 8000590:	f443 6300 	orr.w	r3, r3, #2048	; 0x800
 8000594:	6093      	str	r3, [r2, #8]
	GPIOK->AFR[0] &= ~GPIO_AFRL_AFRL5_0;
 8000596:	4b81      	ldr	r3, [pc, #516]	; (800079c <initialization+0x4fc>)
 8000598:	6a1b      	ldr	r3, [r3, #32]
 800059a:	4a80      	ldr	r2, [pc, #512]	; (800079c <initialization+0x4fc>)
 800059c:	f423 1380 	bic.w	r3, r3, #1048576	; 0x100000
 80005a0:	6213      	str	r3, [r2, #32]
	GPIOK->AFR[0] |= GPIO_AFRL_AFRL5_1 | GPIO_AFRL_AFRL5_2 | GPIO_AFRL_AFRL5_3;
 80005a2:	4b7e      	ldr	r3, [pc, #504]	; (800079c <initialization+0x4fc>)
 80005a4:	6a1b      	ldr	r3, [r3, #32]
 80005a6:	4a7d      	ldr	r2, [pc, #500]	; (800079c <initialization+0x4fc>)
 80005a8:	f443 0360 	orr.w	r3, r3, #14680064	; 0xe00000
 80005ac:	6213      	str	r3, [r2, #32]

	//B7 PK6
	GPIOK->MODER   &= ~GPIO_MODER_MODER6;
 80005ae:	4b7b      	ldr	r3, [pc, #492]	; (800079c <initialization+0x4fc>)
 80005b0:	681b      	ldr	r3, [r3, #0]
 80005b2:	4a7a      	ldr	r2, [pc, #488]	; (800079c <initialization+0x4fc>)
 80005b4:	f423 5340 	bic.w	r3, r3, #12288	; 0x3000
 80005b8:	6013      	str	r3, [r2, #0]
	GPIOK->MODER   |= GPIO_MODER_MODER6_1;
 80005ba:	4b78      	ldr	r3, [pc, #480]	; (800079c <initialization+0x4fc>)
 80005bc:	681b      	ldr	r3, [r3, #0]
 80005be:	4a77      	ldr	r2, [pc, #476]	; (800079c <initialization+0x4fc>)
 80005c0:	f443 5300 	orr.w	r3, r3, #8192	; 0x2000
 80005c4:	6013      	str	r3, [r2, #0]
	GPIOK->OSPEEDR |= GPIO_OSPEEDER_OSPEEDR6_1;
 80005c6:	4b75      	ldr	r3, [pc, #468]	; (800079c <initialization+0x4fc>)
 80005c8:	689b      	ldr	r3, [r3, #8]
 80005ca:	4a74      	ldr	r2, [pc, #464]	; (800079c <initialization+0x4fc>)
 80005cc:	f443 5300 	orr.w	r3, r3, #8192	; 0x2000
 80005d0:	6093      	str	r3, [r2, #8]
	GPIOK->AFR[0] &= ~GPIO_AFRL_AFRL6_0;
 80005d2:	4b72      	ldr	r3, [pc, #456]	; (800079c <initialization+0x4fc>)
 80005d4:	6a1b      	ldr	r3, [r3, #32]
 80005d6:	4a71      	ldr	r2, [pc, #452]	; (800079c <initialization+0x4fc>)
 80005d8:	f023 7380 	bic.w	r3, r3, #16777216	; 0x1000000
 80005dc:	6213      	str	r3, [r2, #32]
	GPIOK->AFR[0] |= GPIO_AFRL_AFRL6_1 | GPIO_AFRL_AFRL6_2 | GPIO_AFRL_AFRL6_3;
 80005de:	4b6f      	ldr	r3, [pc, #444]	; (800079c <initialization+0x4fc>)
 80005e0:	6a1b      	ldr	r3, [r3, #32]
 80005e2:	4a6e      	ldr	r2, [pc, #440]	; (800079c <initialization+0x4fc>)
 80005e4:	f043 6360 	orr.w	r3, r3, #234881024	; 0xe000000
 80005e8:	6213      	str	r3, [r2, #32]

	//R0 PI 15
	GPIOI->MODER   &= ~GPIO_MODER_MODER15;
 80005ea:	4b6d      	ldr	r3, [pc, #436]	; (80007a0 <initialization+0x500>)
 80005ec:	681b      	ldr	r3, [r3, #0]
 80005ee:	4a6c      	ldr	r2, [pc, #432]	; (80007a0 <initialization+0x500>)
 80005f0:	f023 4340 	bic.w	r3, r3, #3221225472	; 0xc0000000
 80005f4:	6013      	str	r3, [r2, #0]
	GPIOI->MODER   |= GPIO_MODER_MODER15_1;
 80005f6:	4b6a      	ldr	r3, [pc, #424]	; (80007a0 <initialization+0x500>)
 80005f8:	681b      	ldr	r3, [r3, #0]
 80005fa:	4a69      	ldr	r2, [pc, #420]	; (80007a0 <initialization+0x500>)
 80005fc:	f043 4300 	orr.w	r3, r3, #2147483648	; 0x80000000
 8000600:	6013      	str	r3, [r2, #0]
	GPIOI->OSPEEDR |= GPIO_OSPEEDER_OSPEEDR15_1;
 8000602:	4b67      	ldr	r3, [pc, #412]	; (80007a0 <initialization+0x500>)
 8000604:	689b      	ldr	r3, [r3, #8]
 8000606:	4a66      	ldr	r2, [pc, #408]	; (80007a0 <initialization+0x500>)
 8000608:	f043 4300 	orr.w	r3, r3, #2147483648	; 0x80000000
 800060c:	6093      	str	r3, [r2, #8]
	GPIOI->AFR[1] &= ~GPIO_AFRL_AFRL7_0;
 800060e:	4b64      	ldr	r3, [pc, #400]	; (80007a0 <initialization+0x500>)
 8000610:	6a5b      	ldr	r3, [r3, #36]	; 0x24
 8000612:	4a63      	ldr	r2, [pc, #396]	; (80007a0 <initialization+0x500>)
 8000614:	f023 5380 	bic.w	r3, r3, #268435456	; 0x10000000
 8000618:	6253      	str	r3, [r2, #36]	; 0x24
	GPIOI->AFR[1] |= GPIO_AFRL_AFRL7_1 | GPIO_AFRL_AFRL7_2 | GPIO_AFRL_AFRL7_3;
 800061a:	4b61      	ldr	r3, [pc, #388]	; (80007a0 <initialization+0x500>)
 800061c:	6a5b      	ldr	r3, [r3, #36]	; 0x24
 800061e:	4a60      	ldr	r2, [pc, #384]	; (80007a0 <initialization+0x500>)
 8000620:	f043 4360 	orr.w	r3, r3, #3758096384	; 0xe0000000
 8000624:	6253      	str	r3, [r2, #36]	; 0x24

	//R1 PJ0
	GPIOJ->MODER   &= ~GPIO_MODER_MODER0;
 8000626:	4b5f      	ldr	r3, [pc, #380]	; (80007a4 <initialization+0x504>)
 8000628:	681b      	ldr	r3, [r3, #0]
 800062a:	4a5e      	ldr	r2, [pc, #376]	; (80007a4 <initialization+0x504>)
 800062c:	f023 0303 	bic.w	r3, r3, #3
 8000630:	6013      	str	r3, [r2, #0]
	GPIOJ->MODER   |= GPIO_MODER_MODER0_1;
 8000632:	4b5c      	ldr	r3, [pc, #368]	; (80007a4 <initialization+0x504>)
 8000634:	681b      	ldr	r3, [r3, #0]
 8000636:	4a5b      	ldr	r2, [pc, #364]	; (80007a4 <initialization+0x504>)
 8000638:	f043 0302 	orr.w	r3, r3, #2
 800063c:	6013      	str	r3, [r2, #0]
	GPIOJ->OSPEEDR |= GPIO_OSPEEDER_OSPEEDR0_1;
 800063e:	4b59      	ldr	r3, [pc, #356]	; (80007a4 <initialization+0x504>)
 8000640:	689b      	ldr	r3, [r3, #8]
 8000642:	4a58      	ldr	r2, [pc, #352]	; (80007a4 <initialization+0x504>)
 8000644:	f043 0302 	orr.w	r3, r3, #2
 8000648:	6093      	str	r3, [r2, #8]
	GPIOJ->AFR[0] &= ~GPIO_AFRL_AFRL0_0;
 800064a:	4b56      	ldr	r3, [pc, #344]	; (80007a4 <initialization+0x504>)
 800064c:	6a1b      	ldr	r3, [r3, #32]
 800064e:	4a55      	ldr	r2, [pc, #340]	; (80007a4 <initialization+0x504>)
 8000650:	f023 0301 	bic.w	r3, r3, #1
 8000654:	6213      	str	r3, [r2, #32]
	GPIOJ->AFR[0] |= GPIO_AFRL_AFRL0_1 | GPIO_AFRL_AFRL0_2 | GPIO_AFRL_AFRL0_3;
 8000656:	4b53      	ldr	r3, [pc, #332]	; (80007a4 <initialization+0x504>)
 8000658:	6a1b      	ldr	r3, [r3, #32]
 800065a:	4a52      	ldr	r2, [pc, #328]	; (80007a4 <initialization+0x504>)
 800065c:	f043 030e 	orr.w	r3, r3, #14
 8000660:	6213      	str	r3, [r2, #32]

	//R2 PJ1
	GPIOJ->MODER   &= ~GPIO_MODER_MODER1;
 8000662:	4b50      	ldr	r3, [pc, #320]	; (80007a4 <initialization+0x504>)
 8000664:	681b      	ldr	r3, [r3, #0]
 8000666:	4a4f      	ldr	r2, [pc, #316]	; (80007a4 <initialization+0x504>)
 8000668:	f023 030c 	bic.w	r3, r3, #12
 800066c:	6013      	str	r3, [r2, #0]
	GPIOJ->MODER   |= GPIO_MODER_MODER1_1;
 800066e:	4b4d      	ldr	r3, [pc, #308]	; (80007a4 <initialization+0x504>)
 8000670:	681b      	ldr	r3, [r3, #0]
 8000672:	4a4c      	ldr	r2, [pc, #304]	; (80007a4 <initialization+0x504>)
 8000674:	f043 0308 	orr.w	r3, r3, #8
 8000678:	6013      	str	r3, [r2, #0]
	GPIOJ->OSPEEDR |= GPIO_OSPEEDER_OSPEEDR1_1;
 800067a:	4b4a      	ldr	r3, [pc, #296]	; (80007a4 <initialization+0x504>)
 800067c:	689b      	ldr	r3, [r3, #8]
 800067e:	4a49      	ldr	r2, [pc, #292]	; (80007a4 <initialization+0x504>)
 8000680:	f043 0308 	orr.w	r3, r3, #8
 8000684:	6093      	str	r3, [r2, #8]
	GPIOJ->AFR[0] &= ~GPIO_AFRL_AFRL1_0;
 8000686:	4b47      	ldr	r3, [pc, #284]	; (80007a4 <initialization+0x504>)
 8000688:	6a1b      	ldr	r3, [r3, #32]
 800068a:	4a46      	ldr	r2, [pc, #280]	; (80007a4 <initialization+0x504>)
 800068c:	f023 0310 	bic.w	r3, r3, #16
 8000690:	6213      	str	r3, [r2, #32]
	GPIOJ->AFR[0] |= GPIO_AFRL_AFRL1_1 | GPIO_AFRL_AFRL1_2 | GPIO_AFRL_AFRL1_3;
 8000692:	4b44      	ldr	r3, [pc, #272]	; (80007a4 <initialization+0x504>)
 8000694:	6a1b      	ldr	r3, [r3, #32]
 8000696:	4a43      	ldr	r2, [pc, #268]	; (80007a4 <initialization+0x504>)
 8000698:	f043 03e0 	orr.w	r3, r3, #224	; 0xe0
 800069c:	6213      	str	r3, [r2, #32]

	//R3 PJ2
	GPIOJ->MODER   &= ~GPIO_MODER_MODER2;
 800069e:	4b41      	ldr	r3, [pc, #260]	; (80007a4 <initialization+0x504>)
 80006a0:	681b      	ldr	r3, [r3, #0]
 80006a2:	4a40      	ldr	r2, [pc, #256]	; (80007a4 <initialization+0x504>)
 80006a4:	f023 0330 	bic.w	r3, r3, #48	; 0x30
 80006a8:	6013      	str	r3, [r2, #0]
	GPIOJ->MODER   |= GPIO_MODER_MODER2_1;
 80006aa:	4b3e      	ldr	r3, [pc, #248]	; (80007a4 <initialization+0x504>)
 80006ac:	681b      	ldr	r3, [r3, #0]
 80006ae:	4a3d      	ldr	r2, [pc, #244]	; (80007a4 <initialization+0x504>)
 80006b0:	f043 0320 	orr.w	r3, r3, #32
 80006b4:	6013      	str	r3, [r2, #0]
	GPIOJ->OSPEEDR |= GPIO_OSPEEDER_OSPEEDR2_1;
 80006b6:	4b3b      	ldr	r3, [pc, #236]	; (80007a4 <initialization+0x504>)
 80006b8:	689b      	ldr	r3, [r3, #8]
 80006ba:	4a3a      	ldr	r2, [pc, #232]	; (80007a4 <initialization+0x504>)
 80006bc:	f043 0320 	orr.w	r3, r3, #32
 80006c0:	6093      	str	r3, [r2, #8]
	GPIOJ->AFR[0] &= ~GPIO_AFRL_AFRL2_0;
 80006c2:	4b38      	ldr	r3, [pc, #224]	; (80007a4 <initialization+0x504>)
 80006c4:	6a1b      	ldr	r3, [r3, #32]
 80006c6:	4a37      	ldr	r2, [pc, #220]	; (80007a4 <initialization+0x504>)
 80006c8:	f423 7380 	bic.w	r3, r3, #256	; 0x100
 80006cc:	6213      	str	r3, [r2, #32]
	GPIOJ->AFR[0] |= GPIO_AFRL_AFRL2_1 | GPIO_AFRL_AFRL2_2 | GPIO_AFRL_AFRL2_3;
 80006ce:	4b35      	ldr	r3, [pc, #212]	; (80007a4 <initialization+0x504>)
 80006d0:	6a1b      	ldr	r3, [r3, #32]
 80006d2:	4a34      	ldr	r2, [pc, #208]	; (80007a4 <initialization+0x504>)
 80006d4:	f443 6360 	orr.w	r3, r3, #3584	; 0xe00
 80006d8:	6213      	str	r3, [r2, #32]

	//R4 PJ3

	GPIOJ->MODER   &= ~GPIO_MODER_MODER3;
 80006da:	4b32      	ldr	r3, [pc, #200]	; (80007a4 <initialization+0x504>)
 80006dc:	681b      	ldr	r3, [r3, #0]
 80006de:	4a31      	ldr	r2, [pc, #196]	; (80007a4 <initialization+0x504>)
 80006e0:	f023 03c0 	bic.w	r3, r3, #192	; 0xc0
 80006e4:	6013      	str	r3, [r2, #0]
	GPIOJ->MODER   |= GPIO_MODER_MODER3_1;
 80006e6:	4b2f      	ldr	r3, [pc, #188]	; (80007a4 <initialization+0x504>)
 80006e8:	681b      	ldr	r3, [r3, #0]
 80006ea:	4a2e      	ldr	r2, [pc, #184]	; (80007a4 <initialization+0x504>)
 80006ec:	f043 0380 	orr.w	r3, r3, #128	; 0x80
 80006f0:	6013      	str	r3, [r2, #0]
	GPIOJ->OSPEEDR |= GPIO_OSPEEDER_OSPEEDR3_1;
 80006f2:	4b2c      	ldr	r3, [pc, #176]	; (80007a4 <initialization+0x504>)
 80006f4:	689b      	ldr	r3, [r3, #8]
 80006f6:	4a2b      	ldr	r2, [pc, #172]	; (80007a4 <initialization+0x504>)
 80006f8:	f043 0380 	orr.w	r3, r3, #128	; 0x80
 80006fc:	6093      	str	r3, [r2, #8]
	GPIOJ->AFR[0] &= ~GPIO_AFRL_AFRL3_0;
 80006fe:	4b29      	ldr	r3, [pc, #164]	; (80007a4 <initialization+0x504>)
 8000700:	6a1b      	ldr	r3, [r3, #32]
 8000702:	4a28      	ldr	r2, [pc, #160]	; (80007a4 <initialization+0x504>)
 8000704:	f423 5380 	bic.w	r3, r3, #4096	; 0x1000
 8000708:	6213      	str	r3, [r2, #32]
	GPIOJ->AFR[0] |= GPIO_AFRL_AFRL3_1 | GPIO_AFRL_AFRL3_2 | GPIO_AFRL_AFRL3_3;
 800070a:	4b26      	ldr	r3, [pc, #152]	; (80007a4 <initialization+0x504>)
 800070c:	6a1b      	ldr	r3, [r3, #32]
 800070e:	4a25      	ldr	r2, [pc, #148]	; (80007a4 <initialization+0x504>)
 8000710:	f443 4360 	orr.w	r3, r3, #57344	; 0xe000
 8000714:	6213      	str	r3, [r2, #32]

	//R5 PJ4
	GPIOJ->MODER   &= ~GPIO_MODER_MODER4;
 8000716:	4b23      	ldr	r3, [pc, #140]	; (80007a4 <initialization+0x504>)
 8000718:	681b      	ldr	r3, [r3, #0]
 800071a:	4a22      	ldr	r2, [pc, #136]	; (80007a4 <initialization+0x504>)
 800071c:	f423 7340 	bic.w	r3, r3, #768	; 0x300
 8000720:	6013      	str	r3, [r2, #0]
	GPIOJ->MODER   |= GPIO_MODER_MODER4_1;
 8000722:	4b20      	ldr	r3, [pc, #128]	; (80007a4 <initialization+0x504>)
 8000724:	681b      	ldr	r3, [r3, #0]
 8000726:	4a1f      	ldr	r2, [pc, #124]	; (80007a4 <initialization+0x504>)
 8000728:	f443 7300 	orr.w	r3, r3, #512	; 0x200
 800072c:	6013      	str	r3, [r2, #0]
	GPIOJ->OSPEEDR |= GPIO_OSPEEDER_OSPEEDR4_1;
 800072e:	4b1d      	ldr	r3, [pc, #116]	; (80007a4 <initialization+0x504>)
 8000730:	689b      	ldr	r3, [r3, #8]
 8000732:	4a1c      	ldr	r2, [pc, #112]	; (80007a4 <initialization+0x504>)
 8000734:	f443 7300 	orr.w	r3, r3, #512	; 0x200
 8000738:	6093      	str	r3, [r2, #8]
	GPIOJ->AFR[0] &= ~GPIO_AFRL_AFRL4_0;
 800073a:	4b1a      	ldr	r3, [pc, #104]	; (80007a4 <initialization+0x504>)
 800073c:	6a1b      	ldr	r3, [r3, #32]
 800073e:	4a19      	ldr	r2, [pc, #100]	; (80007a4 <initialization+0x504>)
 8000740:	f423 3380 	bic.w	r3, r3, #65536	; 0x10000
 8000744:	6213      	str	r3, [r2, #32]
	GPIOJ->AFR[0] |= GPIO_AFRL_AFRL4_1 | GPIO_AFRL_AFRL4_2 | GPIO_AFRL_AFRL4_3;
 8000746:	4b17      	ldr	r3, [pc, #92]	; (80007a4 <initialization+0x504>)
 8000748:	6a1b      	ldr	r3, [r3, #32]
 800074a:	4a16      	ldr	r2, [pc, #88]	; (80007a4 <initialization+0x504>)
 800074c:	f443 2360 	orr.w	r3, r3, #917504	; 0xe0000
 8000750:	6213      	str	r3, [r2, #32]

	//R6 PJ5
	GPIOJ->MODER   &= ~GPIO_MODER_MODER5;
 8000752:	4b14      	ldr	r3, [pc, #80]	; (80007a4 <initialization+0x504>)
 8000754:	681b      	ldr	r3, [r3, #0]
 8000756:	4a13      	ldr	r2, [pc, #76]	; (80007a4 <initialization+0x504>)
 8000758:	f423 6340 	bic.w	r3, r3, #3072	; 0xc00
 800075c:	6013      	str	r3, [r2, #0]
	GPIOJ->MODER   |= GPIO_MODER_MODER5_1;
 800075e:	4b11      	ldr	r3, [pc, #68]	; (80007a4 <initialization+0x504>)
 8000760:	681b      	ldr	r3, [r3, #0]
 8000762:	4a10      	ldr	r2, [pc, #64]	; (80007a4 <initialization+0x504>)
 8000764:	f443 6300 	orr.w	r3, r3, #2048	; 0x800
 8000768:	6013      	str	r3, [r2, #0]
	GPIOJ->OSPEEDR |= GPIO_OSPEEDER_OSPEEDR5_1;
 800076a:	4b0e      	ldr	r3, [pc, #56]	; (80007a4 <initialization+0x504>)
 800076c:	689b      	ldr	r3, [r3, #8]
 800076e:	4a0d      	ldr	r2, [pc, #52]	; (80007a4 <initialization+0x504>)
 8000770:	f443 6300 	orr.w	r3, r3, #2048	; 0x800
 8000774:	6093      	str	r3, [r2, #8]
	GPIOJ->AFR[0] &= ~GPIO_AFRL_AFRL5_0;
 8000776:	4b0b      	ldr	r3, [pc, #44]	; (80007a4 <initialization+0x504>)
 8000778:	6a1b      	ldr	r3, [r3, #32]
 800077a:	4a0a      	ldr	r2, [pc, #40]	; (80007a4 <initialization+0x504>)
 800077c:	f423 1380 	bic.w	r3, r3, #1048576	; 0x100000
 8000780:	6213      	str	r3, [r2, #32]
	GPIOJ->AFR[0] |= GPIO_AFRL_AFRL5_1 | GPIO_AFRL_AFRL5_2 | GPIO_AFRL_AFRL5_3;
 8000782:	4b08      	ldr	r3, [pc, #32]	; (80007a4 <initialization+0x504>)
 8000784:	6a1b      	ldr	r3, [r3, #32]
 8000786:	4a07      	ldr	r2, [pc, #28]	; (80007a4 <initialization+0x504>)
 8000788:	f443 0360 	orr.w	r3, r3, #14680064	; 0xe00000
 800078c:	6213      	str	r3, [r2, #32]

	//R7 PJ6
	GPIOJ->MODER   &= ~GPIO_MODER_MODER6;
 800078e:	4b05      	ldr	r3, [pc, #20]	; (80007a4 <initialization+0x504>)
 8000790:	681b      	ldr	r3, [r3, #0]
 8000792:	4a04      	ldr	r2, [pc, #16]	; (80007a4 <initialization+0x504>)
 8000794:	f423 5340 	bic.w	r3, r3, #12288	; 0x3000
 8000798:	e006      	b.n	80007a8 <initialization+0x508>
 800079a:	bf00      	nop
 800079c:	40022800 	.word	0x40022800
 80007a0:	40022000 	.word	0x40022000
 80007a4:	40022400 	.word	0x40022400
 80007a8:	6013      	str	r3, [r2, #0]
	GPIOJ->MODER   |= GPIO_MODER_MODER6_1;
 80007aa:	4b99      	ldr	r3, [pc, #612]	; (8000a10 <initialization+0x770>)
 80007ac:	681b      	ldr	r3, [r3, #0]
 80007ae:	4a98      	ldr	r2, [pc, #608]	; (8000a10 <initialization+0x770>)
 80007b0:	f443 5300 	orr.w	r3, r3, #8192	; 0x2000
 80007b4:	6013      	str	r3, [r2, #0]
	GPIOJ->OSPEEDR |= GPIO_OSPEEDER_OSPEEDR6_1;
 80007b6:	4b96      	ldr	r3, [pc, #600]	; (8000a10 <initialization+0x770>)
 80007b8:	689b      	ldr	r3, [r3, #8]
 80007ba:	4a95      	ldr	r2, [pc, #596]	; (8000a10 <initialization+0x770>)
 80007bc:	f443 5300 	orr.w	r3, r3, #8192	; 0x2000
 80007c0:	6093      	str	r3, [r2, #8]
	GPIOJ->AFR[0] &= ~GPIO_AFRL_AFRL6_0;
 80007c2:	4b93      	ldr	r3, [pc, #588]	; (8000a10 <initialization+0x770>)
 80007c4:	6a1b      	ldr	r3, [r3, #32]
 80007c6:	4a92      	ldr	r2, [pc, #584]	; (8000a10 <initialization+0x770>)
 80007c8:	f023 7380 	bic.w	r3, r3, #16777216	; 0x1000000
 80007cc:	6213      	str	r3, [r2, #32]
	GPIOJ->AFR[0] |= GPIO_AFRL_AFRL6_1 | GPIO_AFRL_AFRL6_2 | GPIO_AFRL_AFRL6_3;
 80007ce:	4b90      	ldr	r3, [pc, #576]	; (8000a10 <initialization+0x770>)
 80007d0:	6a1b      	ldr	r3, [r3, #32]
 80007d2:	4a8f      	ldr	r2, [pc, #572]	; (8000a10 <initialization+0x770>)
 80007d4:	f043 6360 	orr.w	r3, r3, #234881024	; 0xe000000
 80007d8:	6213      	str	r3, [r2, #32]

	//G0 PJ7
	GPIOJ->MODER   &= ~GPIO_MODER_MODER7;
 80007da:	4b8d      	ldr	r3, [pc, #564]	; (8000a10 <initialization+0x770>)
 80007dc:	681b      	ldr	r3, [r3, #0]
 80007de:	4a8c      	ldr	r2, [pc, #560]	; (8000a10 <initialization+0x770>)
 80007e0:	f423 4340 	bic.w	r3, r3, #49152	; 0xc000
 80007e4:	6013      	str	r3, [r2, #0]
	GPIOJ->MODER   |= GPIO_MODER_MODER7_1;
 80007e6:	4b8a      	ldr	r3, [pc, #552]	; (8000a10 <initialization+0x770>)
 80007e8:	681b      	ldr	r3, [r3, #0]
 80007ea:	4a89      	ldr	r2, [pc, #548]	; (8000a10 <initialization+0x770>)
 80007ec:	f443 4300 	orr.w	r3, r3, #32768	; 0x8000
 80007f0:	6013      	str	r3, [r2, #0]
	GPIOJ->OSPEEDR |= GPIO_OSPEEDER_OSPEEDR7_1;
 80007f2:	4b87      	ldr	r3, [pc, #540]	; (8000a10 <initialization+0x770>)
 80007f4:	689b      	ldr	r3, [r3, #8]
 80007f6:	4a86      	ldr	r2, [pc, #536]	; (8000a10 <initialization+0x770>)
 80007f8:	f443 4300 	orr.w	r3, r3, #32768	; 0x8000
 80007fc:	6093      	str	r3, [r2, #8]
	GPIOJ->AFR[0] &= ~GPIO_AFRL_AFRL7_0;
 80007fe:	4b84      	ldr	r3, [pc, #528]	; (8000a10 <initialization+0x770>)
 8000800:	6a1b      	ldr	r3, [r3, #32]
 8000802:	4a83      	ldr	r2, [pc, #524]	; (8000a10 <initialization+0x770>)
 8000804:	f023 5380 	bic.w	r3, r3, #268435456	; 0x10000000
 8000808:	6213      	str	r3, [r2, #32]
	GPIOJ->AFR[0] |= GPIO_AFRL_AFRL7_1 | GPIO_AFRL_AFRL7_2 | GPIO_AFRL_AFRL7_3;
 800080a:	4b81      	ldr	r3, [pc, #516]	; (8000a10 <initialization+0x770>)
 800080c:	6a1b      	ldr	r3, [r3, #32]
 800080e:	4a80      	ldr	r2, [pc, #512]	; (8000a10 <initialization+0x770>)
 8000810:	f043 4360 	orr.w	r3, r3, #3758096384	; 0xe0000000
 8000814:	6213      	str	r3, [r2, #32]

	//G1 PJ8
	GPIOJ->MODER   &= ~GPIO_MODER_MODER8;
 8000816:	4b7e      	ldr	r3, [pc, #504]	; (8000a10 <initialization+0x770>)
 8000818:	681b      	ldr	r3, [r3, #0]
 800081a:	4a7d      	ldr	r2, [pc, #500]	; (8000a10 <initialization+0x770>)
 800081c:	f423 3340 	bic.w	r3, r3, #196608	; 0x30000
 8000820:	6013      	str	r3, [r2, #0]
	GPIOJ->MODER   |= GPIO_MODER_MODER8_1;
 8000822:	4b7b      	ldr	r3, [pc, #492]	; (8000a10 <initialization+0x770>)
 8000824:	681b      	ldr	r3, [r3, #0]
 8000826:	4a7a      	ldr	r2, [pc, #488]	; (8000a10 <initialization+0x770>)
 8000828:	f443 3300 	orr.w	r3, r3, #131072	; 0x20000
 800082c:	6013      	str	r3, [r2, #0]
	GPIOJ->OSPEEDR |= GPIO_OSPEEDER_OSPEEDR8_1;
 800082e:	4b78      	ldr	r3, [pc, #480]	; (8000a10 <initialization+0x770>)
 8000830:	689b      	ldr	r3, [r3, #8]
 8000832:	4a77      	ldr	r2, [pc, #476]	; (8000a10 <initialization+0x770>)
 8000834:	f443 3300 	orr.w	r3, r3, #131072	; 0x20000
 8000838:	6093      	str	r3, [r2, #8]
	GPIOJ->AFR[1] &= ~GPIO_AFRL_AFRL0_0;
 800083a:	4b75      	ldr	r3, [pc, #468]	; (8000a10 <initialization+0x770>)
 800083c:	6a5b      	ldr	r3, [r3, #36]	; 0x24
 800083e:	4a74      	ldr	r2, [pc, #464]	; (8000a10 <initialization+0x770>)
 8000840:	f023 0301 	bic.w	r3, r3, #1
 8000844:	6253      	str	r3, [r2, #36]	; 0x24
	GPIOJ->AFR[1] |= GPIO_AFRL_AFRL0_1 | GPIO_AFRL_AFRL0_2 | GPIO_AFRL_AFRL0_3;
 8000846:	4b72      	ldr	r3, [pc, #456]	; (8000a10 <initialization+0x770>)
 8000848:	6a5b      	ldr	r3, [r3, #36]	; 0x24
 800084a:	4a71      	ldr	r2, [pc, #452]	; (8000a10 <initialization+0x770>)
 800084c:	f043 030e 	orr.w	r3, r3, #14
 8000850:	6253      	str	r3, [r2, #36]	; 0x24

	//G2 PJ9
	GPIOJ->MODER   &= ~GPIO_MODER_MODER9;
 8000852:	4b6f      	ldr	r3, [pc, #444]	; (8000a10 <initialization+0x770>)
 8000854:	681b      	ldr	r3, [r3, #0]
 8000856:	4a6e      	ldr	r2, [pc, #440]	; (8000a10 <initialization+0x770>)
 8000858:	f423 2340 	bic.w	r3, r3, #786432	; 0xc0000
 800085c:	6013      	str	r3, [r2, #0]
	GPIOJ->MODER   |= GPIO_MODER_MODER9_1;
 800085e:	4b6c      	ldr	r3, [pc, #432]	; (8000a10 <initialization+0x770>)
 8000860:	681b      	ldr	r3, [r3, #0]
 8000862:	4a6b      	ldr	r2, [pc, #428]	; (8000a10 <initialization+0x770>)
 8000864:	f443 2300 	orr.w	r3, r3, #524288	; 0x80000
 8000868:	6013      	str	r3, [r2, #0]
	GPIOJ->OSPEEDR |= GPIO_OSPEEDER_OSPEEDR9_1;
 800086a:	4b69      	ldr	r3, [pc, #420]	; (8000a10 <initialization+0x770>)
 800086c:	689b      	ldr	r3, [r3, #8]
 800086e:	4a68      	ldr	r2, [pc, #416]	; (8000a10 <initialization+0x770>)
 8000870:	f443 2300 	orr.w	r3, r3, #524288	; 0x80000
 8000874:	6093      	str	r3, [r2, #8]
	GPIOJ->AFR[1] &= ~GPIO_AFRL_AFRL1_0;
 8000876:	4b66      	ldr	r3, [pc, #408]	; (8000a10 <initialization+0x770>)
 8000878:	6a5b      	ldr	r3, [r3, #36]	; 0x24
 800087a:	4a65      	ldr	r2, [pc, #404]	; (8000a10 <initialization+0x770>)
 800087c:	f023 0310 	bic.w	r3, r3, #16
 8000880:	6253      	str	r3, [r2, #36]	; 0x24
	GPIOJ->AFR[1] |= GPIO_AFRL_AFRL1_1 | GPIO_AFRL_AFRL1_2 | GPIO_AFRL_AFRL1_3;
 8000882:	4b63      	ldr	r3, [pc, #396]	; (8000a10 <initialization+0x770>)
 8000884:	6a5b      	ldr	r3, [r3, #36]	; 0x24
 8000886:	4a62      	ldr	r2, [pc, #392]	; (8000a10 <initialization+0x770>)
 8000888:	f043 03e0 	orr.w	r3, r3, #224	; 0xe0
 800088c:	6253      	str	r3, [r2, #36]	; 0x24

	//G3 PJ10
	GPIOJ->MODER   &= ~GPIO_MODER_MODER10;
 800088e:	4b60      	ldr	r3, [pc, #384]	; (8000a10 <initialization+0x770>)
 8000890:	681b      	ldr	r3, [r3, #0]
 8000892:	4a5f      	ldr	r2, [pc, #380]	; (8000a10 <initialization+0x770>)
 8000894:	f423 1340 	bic.w	r3, r3, #3145728	; 0x300000
 8000898:	6013      	str	r3, [r2, #0]
	GPIOJ->MODER   |= GPIO_MODER_MODER10_1;
 800089a:	4b5d      	ldr	r3, [pc, #372]	; (8000a10 <initialization+0x770>)
 800089c:	681b      	ldr	r3, [r3, #0]
 800089e:	4a5c      	ldr	r2, [pc, #368]	; (8000a10 <initialization+0x770>)
 80008a0:	f443 1300 	orr.w	r3, r3, #2097152	; 0x200000
 80008a4:	6013      	str	r3, [r2, #0]
	GPIOJ->OSPEEDR |= GPIO_OSPEEDER_OSPEEDR10_1;
 80008a6:	4b5a      	ldr	r3, [pc, #360]	; (8000a10 <initialization+0x770>)
 80008a8:	689b      	ldr	r3, [r3, #8]
 80008aa:	4a59      	ldr	r2, [pc, #356]	; (8000a10 <initialization+0x770>)
 80008ac:	f443 1300 	orr.w	r3, r3, #2097152	; 0x200000
 80008b0:	6093      	str	r3, [r2, #8]
	GPIOJ->AFR[1] &= ~GPIO_AFRL_AFRL2_0;
 80008b2:	4b57      	ldr	r3, [pc, #348]	; (8000a10 <initialization+0x770>)
 80008b4:	6a5b      	ldr	r3, [r3, #36]	; 0x24
 80008b6:	4a56      	ldr	r2, [pc, #344]	; (8000a10 <initialization+0x770>)
 80008b8:	f423 7380 	bic.w	r3, r3, #256	; 0x100
 80008bc:	6253      	str	r3, [r2, #36]	; 0x24
	GPIOJ->AFR[1] |= GPIO_AFRL_AFRL2_1 | GPIO_AFRL_AFRL2_2 | GPIO_AFRL_AFRL2_3;
 80008be:	4b54      	ldr	r3, [pc, #336]	; (8000a10 <initialization+0x770>)
 80008c0:	6a5b      	ldr	r3, [r3, #36]	; 0x24
 80008c2:	4a53      	ldr	r2, [pc, #332]	; (8000a10 <initialization+0x770>)
 80008c4:	f443 6360 	orr.w	r3, r3, #3584	; 0xe00
 80008c8:	6253      	str	r3, [r2, #36]	; 0x24

	//G4 PJ11
	GPIOJ->MODER   &= ~GPIO_MODER_MODER11;
 80008ca:	4b51      	ldr	r3, [pc, #324]	; (8000a10 <initialization+0x770>)
 80008cc:	681b      	ldr	r3, [r3, #0]
 80008ce:	4a50      	ldr	r2, [pc, #320]	; (8000a10 <initialization+0x770>)
 80008d0:	f423 0340 	bic.w	r3, r3, #12582912	; 0xc00000
 80008d4:	6013      	str	r3, [r2, #0]
	GPIOJ->MODER   |= GPIO_MODER_MODER11_1;
 80008d6:	4b4e      	ldr	r3, [pc, #312]	; (8000a10 <initialization+0x770>)
 80008d8:	681b      	ldr	r3, [r3, #0]
 80008da:	4a4d      	ldr	r2, [pc, #308]	; (8000a10 <initialization+0x770>)
 80008dc:	f443 0300 	orr.w	r3, r3, #8388608	; 0x800000
 80008e0:	6013      	str	r3, [r2, #0]
	GPIOJ->OSPEEDR |= GPIO_OSPEEDER_OSPEEDR11_1;
 80008e2:	4b4b      	ldr	r3, [pc, #300]	; (8000a10 <initialization+0x770>)
 80008e4:	689b      	ldr	r3, [r3, #8]
 80008e6:	4a4a      	ldr	r2, [pc, #296]	; (8000a10 <initialization+0x770>)
 80008e8:	f443 0300 	orr.w	r3, r3, #8388608	; 0x800000
 80008ec:	6093      	str	r3, [r2, #8]
	GPIOJ->AFR[1] &= ~GPIO_AFRL_AFRL3_0;
 80008ee:	4b48      	ldr	r3, [pc, #288]	; (8000a10 <initialization+0x770>)
 80008f0:	6a5b      	ldr	r3, [r3, #36]	; 0x24
 80008f2:	4a47      	ldr	r2, [pc, #284]	; (8000a10 <initialization+0x770>)
 80008f4:	f423 5380 	bic.w	r3, r3, #4096	; 0x1000
 80008f8:	6253      	str	r3, [r2, #36]	; 0x24
	GPIOJ->AFR[1] |= GPIO_AFRL_AFRL3_1 | GPIO_AFRL_AFRL3_2 | GPIO_AFRL_AFRL3_3;
 80008fa:	4b45      	ldr	r3, [pc, #276]	; (8000a10 <initialization+0x770>)
 80008fc:	6a5b      	ldr	r3, [r3, #36]	; 0x24
 80008fe:	4a44      	ldr	r2, [pc, #272]	; (8000a10 <initialization+0x770>)
 8000900:	f443 4360 	orr.w	r3, r3, #57344	; 0xe000
 8000904:	6253      	str	r3, [r2, #36]	; 0x24

	//G5 PK0
	GPIOK->MODER   &= ~GPIO_MODER_MODER0;
 8000906:	4b43      	ldr	r3, [pc, #268]	; (8000a14 <initialization+0x774>)
 8000908:	681b      	ldr	r3, [r3, #0]
 800090a:	4a42      	ldr	r2, [pc, #264]	; (8000a14 <initialization+0x774>)
 800090c:	f023 0303 	bic.w	r3, r3, #3
 8000910:	6013      	str	r3, [r2, #0]
	GPIOK->MODER   |= GPIO_MODER_MODER0_1;
 8000912:	4b40      	ldr	r3, [pc, #256]	; (8000a14 <initialization+0x774>)
 8000914:	681b      	ldr	r3, [r3, #0]
 8000916:	4a3f      	ldr	r2, [pc, #252]	; (8000a14 <initialization+0x774>)
 8000918:	f043 0302 	orr.w	r3, r3, #2
 800091c:	6013      	str	r3, [r2, #0]
	GPIOK->OSPEEDR |= GPIO_OSPEEDER_OSPEEDR0_1;
 800091e:	4b3d      	ldr	r3, [pc, #244]	; (8000a14 <initialization+0x774>)
 8000920:	689b      	ldr	r3, [r3, #8]
 8000922:	4a3c      	ldr	r2, [pc, #240]	; (8000a14 <initialization+0x774>)
 8000924:	f043 0302 	orr.w	r3, r3, #2
 8000928:	6093      	str	r3, [r2, #8]
	GPIOK->AFR[0] &= ~GPIO_AFRL_AFRL0_0;
 800092a:	4b3a      	ldr	r3, [pc, #232]	; (8000a14 <initialization+0x774>)
 800092c:	6a1b      	ldr	r3, [r3, #32]
 800092e:	4a39      	ldr	r2, [pc, #228]	; (8000a14 <initialization+0x774>)
 8000930:	f023 0301 	bic.w	r3, r3, #1
 8000934:	6213      	str	r3, [r2, #32]
	GPIOK->AFR[0] |= GPIO_AFRL_AFRL0_1 | GPIO_AFRL_AFRL0_2 | GPIO_AFRL_AFRL0_3;
 8000936:	4b37      	ldr	r3, [pc, #220]	; (8000a14 <initialization+0x774>)
 8000938:	6a1b      	ldr	r3, [r3, #32]
 800093a:	4a36      	ldr	r2, [pc, #216]	; (8000a14 <initialization+0x774>)
 800093c:	f043 030e 	orr.w	r3, r3, #14
 8000940:	6213      	str	r3, [r2, #32]

	//G6 PK1
	GPIOK->MODER   &= ~GPIO_MODER_MODER1;
 8000942:	4b34      	ldr	r3, [pc, #208]	; (8000a14 <initialization+0x774>)
 8000944:	681b      	ldr	r3, [r3, #0]
 8000946:	4a33      	ldr	r2, [pc, #204]	; (8000a14 <initialization+0x774>)
 8000948:	f023 030c 	bic.w	r3, r3, #12
 800094c:	6013      	str	r3, [r2, #0]
	GPIOK->MODER   |= GPIO_MODER_MODER1_1;
 800094e:	4b31      	ldr	r3, [pc, #196]	; (8000a14 <initialization+0x774>)
 8000950:	681b      	ldr	r3, [r3, #0]
 8000952:	4a30      	ldr	r2, [pc, #192]	; (8000a14 <initialization+0x774>)
 8000954:	f043 0308 	orr.w	r3, r3, #8
 8000958:	6013      	str	r3, [r2, #0]
	GPIOK->OSPEEDR |= GPIO_OSPEEDER_OSPEEDR1_1;
 800095a:	4b2e      	ldr	r3, [pc, #184]	; (8000a14 <initialization+0x774>)
 800095c:	689b      	ldr	r3, [r3, #8]
 800095e:	4a2d      	ldr	r2, [pc, #180]	; (8000a14 <initialization+0x774>)
 8000960:	f043 0308 	orr.w	r3, r3, #8
 8000964:	6093      	str	r3, [r2, #8]
	GPIOK->AFR[0] &= ~GPIO_AFRL_AFRL1_0;
 8000966:	4b2b      	ldr	r3, [pc, #172]	; (8000a14 <initialization+0x774>)
 8000968:	6a1b      	ldr	r3, [r3, #32]
 800096a:	4a2a      	ldr	r2, [pc, #168]	; (8000a14 <initialization+0x774>)
 800096c:	f023 0310 	bic.w	r3, r3, #16
 8000970:	6213      	str	r3, [r2, #32]
	GPIOK->AFR[0] |= GPIO_AFRL_AFRL1_1 | GPIO_AFRL_AFRL1_2 | GPIO_AFRL_AFRL1_3;
 8000972:	4b28      	ldr	r3, [pc, #160]	; (8000a14 <initialization+0x774>)
 8000974:	6a1b      	ldr	r3, [r3, #32]
 8000976:	4a27      	ldr	r2, [pc, #156]	; (8000a14 <initialization+0x774>)
 8000978:	f043 03e0 	orr.w	r3, r3, #224	; 0xe0
 800097c:	6213      	str	r3, [r2, #32]

	//G7 PK2
	GPIOK->MODER   &= ~GPIO_MODER_MODER2;
 800097e:	4b25      	ldr	r3, [pc, #148]	; (8000a14 <initialization+0x774>)
 8000980:	681b      	ldr	r3, [r3, #0]
 8000982:	4a24      	ldr	r2, [pc, #144]	; (8000a14 <initialization+0x774>)
 8000984:	f023 0330 	bic.w	r3, r3, #48	; 0x30
 8000988:	6013      	str	r3, [r2, #0]
	GPIOK->MODER   |= GPIO_MODER_MODER2_1;
 800098a:	4b22      	ldr	r3, [pc, #136]	; (8000a14 <initialization+0x774>)
 800098c:	681b      	ldr	r3, [r3, #0]
 800098e:	4a21      	ldr	r2, [pc, #132]	; (8000a14 <initialization+0x774>)
 8000990:	f043 0320 	orr.w	r3, r3, #32
 8000994:	6013      	str	r3, [r2, #0]
	GPIOK->OSPEEDR |= GPIO_OSPEEDER_OSPEEDR2_1;
 8000996:	4b1f      	ldr	r3, [pc, #124]	; (8000a14 <initialization+0x774>)
 8000998:	689b      	ldr	r3, [r3, #8]
 800099a:	4a1e      	ldr	r2, [pc, #120]	; (8000a14 <initialization+0x774>)
 800099c:	f043 0320 	orr.w	r3, r3, #32
 80009a0:	6093      	str	r3, [r2, #8]
	GPIOK->AFR[0] &= ~GPIO_AFRL_AFRL2_0;
 80009a2:	4b1c      	ldr	r3, [pc, #112]	; (8000a14 <initialization+0x774>)
 80009a4:	6a1b      	ldr	r3, [r3, #32]
 80009a6:	4a1b      	ldr	r2, [pc, #108]	; (8000a14 <initialization+0x774>)
 80009a8:	f423 7380 	bic.w	r3, r3, #256	; 0x100
 80009ac:	6213      	str	r3, [r2, #32]
	GPIOK->AFR[0] |= GPIO_AFRL_AFRL2_1 | GPIO_AFRL_AFRL2_2 | GPIO_AFRL_AFRL2_3;
 80009ae:	4b19      	ldr	r3, [pc, #100]	; (8000a14 <initialization+0x774>)
 80009b0:	6a1b      	ldr	r3, [r3, #32]
 80009b2:	4a18      	ldr	r2, [pc, #96]	; (8000a14 <initialization+0x774>)
 80009b4:	f443 6360 	orr.w	r3, r3, #3584	; 0xe00
 80009b8:	6213      	str	r3, [r2, #32]

	//VSYNC
	GPIOI->MODER   &= ~GPIO_MODER_MODER9;
 80009ba:	4b17      	ldr	r3, [pc, #92]	; (8000a18 <initialization+0x778>)
 80009bc:	681b      	ldr	r3, [r3, #0]
 80009be:	4a16      	ldr	r2, [pc, #88]	; (8000a18 <initialization+0x778>)
 80009c0:	f423 2340 	bic.w	r3, r3, #786432	; 0xc0000
 80009c4:	6013      	str	r3, [r2, #0]
	GPIOI->MODER   |= GPIO_MODER_MODER9_1;
 80009c6:	4b14      	ldr	r3, [pc, #80]	; (8000a18 <initialization+0x778>)
 80009c8:	681b      	ldr	r3, [r3, #0]
 80009ca:	4a13      	ldr	r2, [pc, #76]	; (8000a18 <initialization+0x778>)
 80009cc:	f443 2300 	orr.w	r3, r3, #524288	; 0x80000
 80009d0:	6013      	str	r3, [r2, #0]
	GPIOI->OSPEEDR |= GPIO_OSPEEDER_OSPEEDR9_1;
 80009d2:	4b11      	ldr	r3, [pc, #68]	; (8000a18 <initialization+0x778>)
 80009d4:	689b      	ldr	r3, [r3, #8]
 80009d6:	4a10      	ldr	r2, [pc, #64]	; (8000a18 <initialization+0x778>)
 80009d8:	f443 2300 	orr.w	r3, r3, #524288	; 0x80000
 80009dc:	6093      	str	r3, [r2, #8]
	GPIOI->AFR[1] &= ~GPIO_AFRL_AFRL1_0;
 80009de:	4b0e      	ldr	r3, [pc, #56]	; (8000a18 <initialization+0x778>)
 80009e0:	6a5b      	ldr	r3, [r3, #36]	; 0x24
 80009e2:	4a0d      	ldr	r2, [pc, #52]	; (8000a18 <initialization+0x778>)
 80009e4:	f023 0310 	bic.w	r3, r3, #16
 80009e8:	6253      	str	r3, [r2, #36]	; 0x24
	GPIOI->AFR[1] |= GPIO_AFRL_AFRL1_1 | GPIO_AFRL_AFRL1_2 | GPIO_AFRL_AFRL1_3;
 80009ea:	4b0b      	ldr	r3, [pc, #44]	; (8000a18 <initialization+0x778>)
 80009ec:	6a5b      	ldr	r3, [r3, #36]	; 0x24
 80009ee:	4a0a      	ldr	r2, [pc, #40]	; (8000a18 <initialization+0x778>)
 80009f0:	f043 03e0 	orr.w	r3, r3, #224	; 0xe0
 80009f4:	6253      	str	r3, [r2, #36]	; 0x24

	//HSYNC
	GPIOI->MODER   &= ~GPIO_MODER_MODER10;
 80009f6:	4b08      	ldr	r3, [pc, #32]	; (8000a18 <initialization+0x778>)
 80009f8:	681b      	ldr	r3, [r3, #0]
 80009fa:	4a07      	ldr	r2, [pc, #28]	; (8000a18 <initialization+0x778>)
 80009fc:	f423 1340 	bic.w	r3, r3, #3145728	; 0x300000
 8000a00:	6013      	str	r3, [r2, #0]
	GPIOI->MODER   |= GPIO_MODER_MODER10_1;
 8000a02:	4b05      	ldr	r3, [pc, #20]	; (8000a18 <initialization+0x778>)
 8000a04:	681b      	ldr	r3, [r3, #0]
 8000a06:	4a04      	ldr	r2, [pc, #16]	; (8000a18 <initialization+0x778>)
 8000a08:	f443 1300 	orr.w	r3, r3, #2097152	; 0x200000
 8000a0c:	e006      	b.n	8000a1c <initialization+0x77c>
 8000a0e:	bf00      	nop
 8000a10:	40022400 	.word	0x40022400
 8000a14:	40022800 	.word	0x40022800
 8000a18:	40022000 	.word	0x40022000
 8000a1c:	6013      	str	r3, [r2, #0]
	GPIOI->OSPEEDR |= GPIO_OSPEEDER_OSPEEDR10_1;
 8000a1e:	4b78      	ldr	r3, [pc, #480]	; (8000c00 <initialization+0x960>)
 8000a20:	689b      	ldr	r3, [r3, #8]
 8000a22:	4a77      	ldr	r2, [pc, #476]	; (8000c00 <initialization+0x960>)
 8000a24:	f443 1300 	orr.w	r3, r3, #2097152	; 0x200000
 8000a28:	6093      	str	r3, [r2, #8]
	GPIOI->AFR[1] &= ~GPIO_AFRL_AFRL2_0;
 8000a2a:	4b75      	ldr	r3, [pc, #468]	; (8000c00 <initialization+0x960>)
 8000a2c:	6a5b      	ldr	r3, [r3, #36]	; 0x24
 8000a2e:	4a74      	ldr	r2, [pc, #464]	; (8000c00 <initialization+0x960>)
 8000a30:	f423 7380 	bic.w	r3, r3, #256	; 0x100
 8000a34:	6253      	str	r3, [r2, #36]	; 0x24
	GPIOI->AFR[1] |= GPIO_AFRL_AFRL2_1 | GPIO_AFRL_AFRL2_2 | GPIO_AFRL_AFRL2_3;
 8000a36:	4b72      	ldr	r3, [pc, #456]	; (8000c00 <initialization+0x960>)
 8000a38:	6a5b      	ldr	r3, [r3, #36]	; 0x24
 8000a3a:	4a71      	ldr	r2, [pc, #452]	; (8000c00 <initialization+0x960>)
 8000a3c:	f443 6360 	orr.w	r3, r3, #3584	; 0xe00
 8000a40:	6253      	str	r3, [r2, #36]	; 0x24

	//CLK
	GPIOI->MODER   &= ~GPIO_MODER_MODER14;
 8000a42:	4b6f      	ldr	r3, [pc, #444]	; (8000c00 <initialization+0x960>)
 8000a44:	681b      	ldr	r3, [r3, #0]
 8000a46:	4a6e      	ldr	r2, [pc, #440]	; (8000c00 <initialization+0x960>)
 8000a48:	f023 5340 	bic.w	r3, r3, #805306368	; 0x30000000
 8000a4c:	6013      	str	r3, [r2, #0]
	GPIOI->MODER   |= GPIO_MODER_MODER14_1;
 8000a4e:	4b6c      	ldr	r3, [pc, #432]	; (8000c00 <initialization+0x960>)
 8000a50:	681b      	ldr	r3, [r3, #0]
 8000a52:	4a6b      	ldr	r2, [pc, #428]	; (8000c00 <initialization+0x960>)
 8000a54:	f043 5300 	orr.w	r3, r3, #536870912	; 0x20000000
 8000a58:	6013      	str	r3, [r2, #0]
	GPIOI->OSPEEDR |= GPIO_OSPEEDER_OSPEEDR14_1;
 8000a5a:	4b69      	ldr	r3, [pc, #420]	; (8000c00 <initialization+0x960>)
 8000a5c:	689b      	ldr	r3, [r3, #8]
 8000a5e:	4a68      	ldr	r2, [pc, #416]	; (8000c00 <initialization+0x960>)
 8000a60:	f043 5300 	orr.w	r3, r3, #536870912	; 0x20000000
 8000a64:	6093      	str	r3, [r2, #8]
	GPIOI->AFR[1] &= ~GPIO_AFRL_AFRL6_0;
 8000a66:	4b66      	ldr	r3, [pc, #408]	; (8000c00 <initialization+0x960>)
 8000a68:	6a5b      	ldr	r3, [r3, #36]	; 0x24
 8000a6a:	4a65      	ldr	r2, [pc, #404]	; (8000c00 <initialization+0x960>)
 8000a6c:	f023 7380 	bic.w	r3, r3, #16777216	; 0x1000000
 8000a70:	6253      	str	r3, [r2, #36]	; 0x24
	GPIOI->AFR[1] |= GPIO_AFRL_AFRL6_1 | GPIO_AFRL_AFRL6_2 | GPIO_AFRL_AFRL6_3;
 8000a72:	4b63      	ldr	r3, [pc, #396]	; (8000c00 <initialization+0x960>)
 8000a74:	6a5b      	ldr	r3, [r3, #36]	; 0x24
 8000a76:	4a62      	ldr	r2, [pc, #392]	; (8000c00 <initialization+0x960>)
 8000a78:	f043 6360 	orr.w	r3, r3, #234881024	; 0xe000000
 8000a7c:	6253      	str	r3, [r2, #36]	; 0x24

	//DE
	GPIOK->MODER   &= ~GPIO_MODER_MODER7;
 8000a7e:	4b61      	ldr	r3, [pc, #388]	; (8000c04 <initialization+0x964>)
 8000a80:	681b      	ldr	r3, [r3, #0]
 8000a82:	4a60      	ldr	r2, [pc, #384]	; (8000c04 <initialization+0x964>)
 8000a84:	f423 4340 	bic.w	r3, r3, #49152	; 0xc000
 8000a88:	6013      	str	r3, [r2, #0]
	GPIOK->MODER   |= GPIO_MODER_MODER7_1;
 8000a8a:	4b5e      	ldr	r3, [pc, #376]	; (8000c04 <initialization+0x964>)
 8000a8c:	681b      	ldr	r3, [r3, #0]
 8000a8e:	4a5d      	ldr	r2, [pc, #372]	; (8000c04 <initialization+0x964>)
 8000a90:	f443 4300 	orr.w	r3, r3, #32768	; 0x8000
 8000a94:	6013      	str	r3, [r2, #0]
	GPIOK->OSPEEDR |= GPIO_OSPEEDER_OSPEEDR7_1;
 8000a96:	4b5b      	ldr	r3, [pc, #364]	; (8000c04 <initialization+0x964>)
 8000a98:	689b      	ldr	r3, [r3, #8]
 8000a9a:	4a5a      	ldr	r2, [pc, #360]	; (8000c04 <initialization+0x964>)
 8000a9c:	f443 4300 	orr.w	r3, r3, #32768	; 0x8000
 8000aa0:	6093      	str	r3, [r2, #8]
	GPIOK->AFR[0] &= ~GPIO_AFRL_AFRL7_0;
 8000aa2:	4b58      	ldr	r3, [pc, #352]	; (8000c04 <initialization+0x964>)
 8000aa4:	6a1b      	ldr	r3, [r3, #32]
 8000aa6:	4a57      	ldr	r2, [pc, #348]	; (8000c04 <initialization+0x964>)
 8000aa8:	f023 5380 	bic.w	r3, r3, #268435456	; 0x10000000
 8000aac:	6213      	str	r3, [r2, #32]
	GPIOK->AFR[0] |= GPIO_AFRL_AFRL7_1 | GPIO_AFRL_AFRL7_2 | GPIO_AFRL_AFRL7_3;
 8000aae:	4b55      	ldr	r3, [pc, #340]	; (8000c04 <initialization+0x964>)
 8000ab0:	6a1b      	ldr	r3, [r3, #32]
 8000ab2:	4a54      	ldr	r2, [pc, #336]	; (8000c04 <initialization+0x964>)
 8000ab4:	f043 4360 	orr.w	r3, r3, #3758096384	; 0xe0000000
 8000ab8:	6213      	str	r3, [r2, #32]

	//LED
	GPIOK->MODER &= ~GPIO_MODER_MODER3;
 8000aba:	4b52      	ldr	r3, [pc, #328]	; (8000c04 <initialization+0x964>)
 8000abc:	681b      	ldr	r3, [r3, #0]
 8000abe:	4a51      	ldr	r2, [pc, #324]	; (8000c04 <initialization+0x964>)
 8000ac0:	f023 03c0 	bic.w	r3, r3, #192	; 0xc0
 8000ac4:	6013      	str	r3, [r2, #0]
	GPIOK->MODER |= GPIO_MODER_MODER3_0;
 8000ac6:	4b4f      	ldr	r3, [pc, #316]	; (8000c04 <initialization+0x964>)
 8000ac8:	681b      	ldr	r3, [r3, #0]
 8000aca:	4a4e      	ldr	r2, [pc, #312]	; (8000c04 <initialization+0x964>)
 8000acc:	f043 0340 	orr.w	r3, r3, #64	; 0x40
 8000ad0:	6013      	str	r3, [r2, #0]
	GPIOK->BSRR |= GPIO_BSRR_BS_3;
 8000ad2:	4b4c      	ldr	r3, [pc, #304]	; (8000c04 <initialization+0x964>)
 8000ad4:	699b      	ldr	r3, [r3, #24]
 8000ad6:	4a4b      	ldr	r2, [pc, #300]	; (8000c04 <initialization+0x964>)
 8000ad8:	f043 0308 	orr.w	r3, r3, #8
 8000adc:	6193      	str	r3, [r2, #24]

	//ON
	GPIOI->MODER &= ~GPIO_MODER_MODER12;
 8000ade:	4b48      	ldr	r3, [pc, #288]	; (8000c00 <initialization+0x960>)
 8000ae0:	681b      	ldr	r3, [r3, #0]
 8000ae2:	4a47      	ldr	r2, [pc, #284]	; (8000c00 <initialization+0x960>)
 8000ae4:	f023 7340 	bic.w	r3, r3, #50331648	; 0x3000000
 8000ae8:	6013      	str	r3, [r2, #0]
	GPIOI->MODER |= GPIO_MODER_MODER12_0;
 8000aea:	4b45      	ldr	r3, [pc, #276]	; (8000c00 <initialization+0x960>)
 8000aec:	681b      	ldr	r3, [r3, #0]
 8000aee:	4a44      	ldr	r2, [pc, #272]	; (8000c00 <initialization+0x960>)
 8000af0:	f043 7380 	orr.w	r3, r3, #16777216	; 0x1000000
 8000af4:	6013      	str	r3, [r2, #0]
	GPIOI->BSRR |= GPIO_BSRR_BS_12;
 8000af6:	4b42      	ldr	r3, [pc, #264]	; (8000c00 <initialization+0x960>)
 8000af8:	699b      	ldr	r3, [r3, #24]
 8000afa:	4a41      	ldr	r2, [pc, #260]	; (8000c00 <initialization+0x960>)
 8000afc:	f443 5380 	orr.w	r3, r3, #4096	; 0x1000
 8000b00:	6193      	str	r3, [r2, #24]

	GPIOC->MODER &= ~GPIO_MODER_MODER7;
 8000b02:	4b41      	ldr	r3, [pc, #260]	; (8000c08 <initialization+0x968>)
 8000b04:	681b      	ldr	r3, [r3, #0]
 8000b06:	4a40      	ldr	r2, [pc, #256]	; (8000c08 <initialization+0x968>)
 8000b08:	f423 4340 	bic.w	r3, r3, #49152	; 0xc000
 8000b0c:	6013      	str	r3, [r2, #0]
	GPIOC->MODER |= GPIO_MODER_MODER7_0;
 8000b0e:	4b3e      	ldr	r3, [pc, #248]	; (8000c08 <initialization+0x968>)
 8000b10:	681b      	ldr	r3, [r3, #0]
 8000b12:	4a3d      	ldr	r2, [pc, #244]	; (8000c08 <initialization+0x968>)
 8000b14:	f443 4380 	orr.w	r3, r3, #16384	; 0x4000
 8000b18:	6013      	str	r3, [r2, #0]
	GPIOC->BSRR |= GPIO_BSRR_BS_7;
 8000b1a:	4b3b      	ldr	r3, [pc, #236]	; (8000c08 <initialization+0x968>)
 8000b1c:	699b      	ldr	r3, [r3, #24]
 8000b1e:	4a3a      	ldr	r2, [pc, #232]	; (8000c08 <initialization+0x968>)
 8000b20:	f043 0380 	orr.w	r3, r3, #128	; 0x80
 8000b24:	6193      	str	r3, [r2, #24]

	LTDC->SSCR |= ((DISPLAY_HSYNC - 1) << 16 | (DISPLAY_VSYNC - 1));
 8000b26:	4b39      	ldr	r3, [pc, #228]	; (8000c0c <initialization+0x96c>)
 8000b28:	689a      	ldr	r2, [r3, #8]
 8000b2a:	4938      	ldr	r1, [pc, #224]	; (8000c0c <initialization+0x96c>)
 8000b2c:	4b38      	ldr	r3, [pc, #224]	; (8000c10 <initialization+0x970>)
 8000b2e:	4313      	orrs	r3, r2
 8000b30:	608b      	str	r3, [r1, #8]
	LTDC->BPCR |= ((DISPLAY_HSYNC+DISPLAY_HBP-1) << 16 | (DISPLAY_VSYNC+DISPLAY_VBP-1));
 8000b32:	4b36      	ldr	r3, [pc, #216]	; (8000c0c <initialization+0x96c>)
 8000b34:	68da      	ldr	r2, [r3, #12]
 8000b36:	4935      	ldr	r1, [pc, #212]	; (8000c0c <initialization+0x96c>)
 8000b38:	4b36      	ldr	r3, [pc, #216]	; (8000c14 <initialization+0x974>)
 8000b3a:	4313      	orrs	r3, r2
 8000b3c:	60cb      	str	r3, [r1, #12]
	LTDC->AWCR |= ((DISPLAY_WIDTH + DISPLAY_HSYNC + DISPLAY_HBP - 1) << 16 | (DISPLAY_HEIGHT + DISPLAY_VSYNC + DISPLAY_VBP - 1));
 8000b3e:	4b33      	ldr	r3, [pc, #204]	; (8000c0c <initialization+0x96c>)
 8000b40:	691a      	ldr	r2, [r3, #16]
 8000b42:	4932      	ldr	r1, [pc, #200]	; (8000c0c <initialization+0x96c>)
 8000b44:	4b34      	ldr	r3, [pc, #208]	; (8000c18 <initialization+0x978>)
 8000b46:	4313      	orrs	r3, r2
 8000b48:	610b      	str	r3, [r1, #16]
	LTDC->TWCR |= ((DISPLAY_WIDTH + DISPLAY_HSYNC + DISPLAY_HBP + DISPLAY_HFP -1)<< 16 |(DISPLAY_HEIGHT + DISPLAY_VSYNC + DISPLAY_VBP + DISPLAY_VFP - 1));
 8000b4a:	4b30      	ldr	r3, [pc, #192]	; (8000c0c <initialization+0x96c>)
 8000b4c:	695a      	ldr	r2, [r3, #20]
 8000b4e:	492f      	ldr	r1, [pc, #188]	; (8000c0c <initialization+0x96c>)
 8000b50:	4b32      	ldr	r3, [pc, #200]	; (8000c1c <initialization+0x97c>)
 8000b52:	4313      	orrs	r3, r2
 8000b54:	614b      	str	r3, [r1, #20]
	LTDC_Layer2->WHPCR |= (((DISPLAY_WIDTH + DISPLAY_HBP + DISPLAY_HSYNC - 1) << 16) | (DISPLAY_HBP + DISPLAY_HSYNC));
 8000b56:	4b32      	ldr	r3, [pc, #200]	; (8000c20 <initialization+0x980>)
 8000b58:	685a      	ldr	r2, [r3, #4]
 8000b5a:	4931      	ldr	r1, [pc, #196]	; (8000c20 <initialization+0x980>)
 8000b5c:	4b31      	ldr	r3, [pc, #196]	; (8000c24 <initialization+0x984>)
 8000b5e:	4313      	orrs	r3, r2
 8000b60:	604b      	str	r3, [r1, #4]
	LTDC_Layer2->WVPCR |= (((DISPLAY_HEIGHT + DISPLAY_VSYNC + DISPLAY_VBP - 1) << 16) |(DISPLAY_VSYNC + DISPLAY_VBP));
 8000b62:	4b2f      	ldr	r3, [pc, #188]	; (8000c20 <initialization+0x980>)
 8000b64:	689a      	ldr	r2, [r3, #8]
 8000b66:	492e      	ldr	r1, [pc, #184]	; (8000c20 <initialization+0x980>)
 8000b68:	4b2f      	ldr	r3, [pc, #188]	; (8000c28 <initialization+0x988>)
 8000b6a:	4313      	orrs	r3, r2
 8000b6c:	608b      	str	r3, [r1, #8]
	LTDC_Layer2->PFCR = 2;
 8000b6e:	4b2c      	ldr	r3, [pc, #176]	; (8000c20 <initialization+0x980>)
 8000b70:	2202      	movs	r2, #2
 8000b72:	611a      	str	r2, [r3, #16]
	LTDC_Layer2->BFCR |= ((4 << 8) | 5);
 8000b74:	4b2a      	ldr	r3, [pc, #168]	; (8000c20 <initialization+0x980>)
 8000b76:	69da      	ldr	r2, [r3, #28]
 8000b78:	4929      	ldr	r1, [pc, #164]	; (8000c20 <initialization+0x980>)
 8000b7a:	f240 4305 	movw	r3, #1029	; 0x405
 8000b7e:	4313      	orrs	r3, r2
 8000b80:	61cb      	str	r3, [r1, #28]
	LTDC_Layer2->CACR = 0xff;
 8000b82:	4b27      	ldr	r3, [pc, #156]	; (8000c20 <initialization+0x980>)
 8000b84:	22ff      	movs	r2, #255	; 0xff
 8000b86:	615a      	str	r2, [r3, #20]
	LTDC_Layer2->CFBLR |= (((PIXEL_SIZE * DISPLAY_WIDTH) << 16) | (PIXEL_SIZE * DISPLAY_WIDTH + 3));
 8000b88:	4b25      	ldr	r3, [pc, #148]	; (8000c20 <initialization+0x980>)
 8000b8a:	6ada      	ldr	r2, [r3, #44]	; 0x2c
 8000b8c:	4924      	ldr	r1, [pc, #144]	; (8000c20 <initialization+0x980>)
 8000b8e:	4b27      	ldr	r3, [pc, #156]	; (8000c2c <initialization+0x98c>)
 8000b90:	4313      	orrs	r3, r2
 8000b92:	62cb      	str	r3, [r1, #44]	; 0x2c
	LTDC_Layer2->CFBLNR |= DISPLAY_HEIGHT;
 8000b94:	4b22      	ldr	r3, [pc, #136]	; (8000c20 <initialization+0x980>)
 8000b96:	6b1b      	ldr	r3, [r3, #48]	; 0x30
 8000b98:	4a21      	ldr	r2, [pc, #132]	; (8000c20 <initialization+0x980>)
 8000b9a:	f443 7388 	orr.w	r3, r3, #272	; 0x110
 8000b9e:	6313      	str	r3, [r2, #48]	; 0x30
	LTDC_Layer2->CR |= LTDC_LxCR_LEN;
 8000ba0:	4b1f      	ldr	r3, [pc, #124]	; (8000c20 <initialization+0x980>)
 8000ba2:	681b      	ldr	r3, [r3, #0]
 8000ba4:	4a1e      	ldr	r2, [pc, #120]	; (8000c20 <initialization+0x980>)
 8000ba6:	f043 0301 	orr.w	r3, r3, #1
 8000baa:	6013      	str	r3, [r2, #0]
	LTDC->SRCR |= LTDC_SRCR_VBR;
 8000bac:	4b17      	ldr	r3, [pc, #92]	; (8000c0c <initialization+0x96c>)
 8000bae:	6a5b      	ldr	r3, [r3, #36]	; 0x24
 8000bb0:	4a16      	ldr	r2, [pc, #88]	; (8000c0c <initialization+0x96c>)
 8000bb2:	f043 0302 	orr.w	r3, r3, #2
 8000bb6:	6253      	str	r3, [r2, #36]	; 0x24
	LTDC->GCR |= LTDC_GCR_LTDCEN;
 8000bb8:	4b14      	ldr	r3, [pc, #80]	; (8000c0c <initialization+0x96c>)
 8000bba:	699b      	ldr	r3, [r3, #24]
 8000bbc:	4a13      	ldr	r2, [pc, #76]	; (8000c0c <initialization+0x96c>)
 8000bbe:	f043 0301 	orr.w	r3, r3, #1
 8000bc2:	6193      	str	r3, [r2, #24]

	for(int i = 0; i <= 130559; ++i)
 8000bc4:	2300      	movs	r3, #0
 8000bc6:	607b      	str	r3, [r7, #4]
 8000bc8:	e00a      	b.n	8000be0 <initialization+0x940>
		screen[i] = main_picture[i];
 8000bca:	4a19      	ldr	r2, [pc, #100]	; (8000c30 <initialization+0x990>)
 8000bcc:	687b      	ldr	r3, [r7, #4]
 8000bce:	f832 1013 	ldrh.w	r1, [r2, r3, lsl #1]
 8000bd2:	4a18      	ldr	r2, [pc, #96]	; (8000c34 <initialization+0x994>)
 8000bd4:	687b      	ldr	r3, [r7, #4]
 8000bd6:	f822 1013 	strh.w	r1, [r2, r3, lsl #1]
	for(int i = 0; i <= 130559; ++i)
 8000bda:	687b      	ldr	r3, [r7, #4]
 8000bdc:	3301      	adds	r3, #1
 8000bde:	607b      	str	r3, [r7, #4]
 8000be0:	687b      	ldr	r3, [r7, #4]
 8000be2:	f5b3 3fff 	cmp.w	r3, #130560	; 0x1fe00
 8000be6:	dbf0      	blt.n	8000bca <initialization+0x92a>

	GPIOK->BSRR |= GPIO_BSRR_BS_3;
 8000be8:	4b06      	ldr	r3, [pc, #24]	; (8000c04 <initialization+0x964>)
 8000bea:	699b      	ldr	r3, [r3, #24]
 8000bec:	4a05      	ldr	r2, [pc, #20]	; (8000c04 <initialization+0x964>)
 8000bee:	f043 0308 	orr.w	r3, r3, #8
 8000bf2:	6193      	str	r3, [r2, #24]
}
 8000bf4:	bf00      	nop
 8000bf6:	370c      	adds	r7, #12
 8000bf8:	46bd      	mov	sp, r7
 8000bfa:	f85d 7b04 	ldr.w	r7, [sp], #4
 8000bfe:	4770      	bx	lr
 8000c00:	40022000 	.word	0x40022000
 8000c04:	40022800 	.word	0x40022800
 8000c08:	40020800 	.word	0x40020800
 8000c0c:	40016800 	.word	0x40016800
 8000c10:	001d0009 	.word	0x001d0009
 8000c14:	002a000b 	.word	0x002a000b
 8000c18:	020a011b 	.word	0x020a011b
 8000c1c:	022a011d 	.word	0x022a011d
 8000c20:	40016904 	.word	0x40016904
 8000c24:	020a002b 	.word	0x020a002b
 8000c28:	011b000c 	.word	0x011b000c
 8000c2c:	07800783 	.word	0x07800783
 8000c30:	080a9bc4 	.word	0x080a9bc4
 8000c34:	20000020 	.word	0x20000020

08000c38 <change_digit_1>:

void change_digit_1(int poz, int number)
{
 8000c38:	b480      	push	{r7}
 8000c3a:	b099      	sub	sp, #100	; 0x64
 8000c3c:	af00      	add	r7, sp, #0
 8000c3e:	6078      	str	r0, [r7, #4]
 8000c40:	6039      	str	r1, [r7, #0]
	int x = 0;
 8000c42:	2300      	movs	r3, #0
 8000c44:	65fb      	str	r3, [r7, #92]	; 0x5c
	int k = 0;
 8000c46:	2300      	movs	r3, #0
 8000c48:	65bb      	str	r3, [r7, #88]	; 0x58

	if(poz==1)
 8000c4a:	687b      	ldr	r3, [r7, #4]
 8000c4c:	2b01      	cmp	r3, #1
 8000c4e:	d101      	bne.n	8000c54 <change_digit_1+0x1c>
		x = 0;
 8000c50:	2300      	movs	r3, #0
 8000c52:	65fb      	str	r3, [r7, #92]	; 0x5c
	if(poz==2)
 8000c54:	687b      	ldr	r3, [r7, #4]
 8000c56:	2b02      	cmp	r3, #2
 8000c58:	d101      	bne.n	8000c5e <change_digit_1+0x26>
		x = 38;
 8000c5a:	2326      	movs	r3, #38	; 0x26
 8000c5c:	65fb      	str	r3, [r7, #92]	; 0x5c
	if(poz==3)
 8000c5e:	687b      	ldr	r3, [r7, #4]
 8000c60:	2b03      	cmp	r3, #3
 8000c62:	d101      	bne.n	8000c68 <change_digit_1+0x30>
		x = 86;
 8000c64:	2356      	movs	r3, #86	; 0x56
 8000c66:	65fb      	str	r3, [r7, #92]	; 0x5c
	if(poz==4)
 8000c68:	687b      	ldr	r3, [r7, #4]
 8000c6a:	2b04      	cmp	r3, #4
 8000c6c:	d101      	bne.n	8000c72 <change_digit_1+0x3a>
		x = 124;
 8000c6e:	237c      	movs	r3, #124	; 0x7c
 8000c70:	65fb      	str	r3, [r7, #92]	; 0x5c

	if(number==0)
 8000c72:	683b      	ldr	r3, [r7, #0]
 8000c74:	2b00      	cmp	r3, #0
 8000c76:	d126      	bne.n	8000cc6 <change_digit_1+0x8e>
		for(int i = 0; i <= 57; ++i)
 8000c78:	2300      	movs	r3, #0
 8000c7a:	657b      	str	r3, [r7, #84]	; 0x54
 8000c7c:	e020      	b.n	8000cc0 <change_digit_1+0x88>
			for(int j = 0; j <= 32; ++j)
 8000c7e:	2300      	movs	r3, #0
 8000c80:	653b      	str	r3, [r7, #80]	; 0x50
 8000c82:	e017      	b.n	8000cb4 <change_digit_1+0x7c>
				screen[x+5113+i*480+j] = zero_picture_1[k++];
 8000c84:	6db9      	ldr	r1, [r7, #88]	; 0x58
 8000c86:	1c4b      	adds	r3, r1, #1
 8000c88:	65bb      	str	r3, [r7, #88]	; 0x58
 8000c8a:	6dfb      	ldr	r3, [r7, #92]	; 0x5c
 8000c8c:	f241 32f9 	movw	r2, #5113	; 0x13f9
 8000c90:	441a      	add	r2, r3
 8000c92:	6d78      	ldr	r0, [r7, #84]	; 0x54
 8000c94:	4603      	mov	r3, r0
 8000c96:	011b      	lsls	r3, r3, #4
 8000c98:	1a1b      	subs	r3, r3, r0
 8000c9a:	015b      	lsls	r3, r3, #5
 8000c9c:	441a      	add	r2, r3
 8000c9e:	6d3b      	ldr	r3, [r7, #80]	; 0x50
 8000ca0:	4413      	add	r3, r2
 8000ca2:	4aa0      	ldr	r2, [pc, #640]	; (8000f24 <change_digit_1+0x2ec>)
 8000ca4:	f832 1011 	ldrh.w	r1, [r2, r1, lsl #1]
 8000ca8:	4a9f      	ldr	r2, [pc, #636]	; (8000f28 <change_digit_1+0x2f0>)
 8000caa:	f822 1013 	strh.w	r1, [r2, r3, lsl #1]
			for(int j = 0; j <= 32; ++j)
 8000cae:	6d3b      	ldr	r3, [r7, #80]	; 0x50
 8000cb0:	3301      	adds	r3, #1
 8000cb2:	653b      	str	r3, [r7, #80]	; 0x50
 8000cb4:	6d3b      	ldr	r3, [r7, #80]	; 0x50
 8000cb6:	2b20      	cmp	r3, #32
 8000cb8:	dde4      	ble.n	8000c84 <change_digit_1+0x4c>
		for(int i = 0; i <= 57; ++i)
 8000cba:	6d7b      	ldr	r3, [r7, #84]	; 0x54
 8000cbc:	3301      	adds	r3, #1
 8000cbe:	657b      	str	r3, [r7, #84]	; 0x54
 8000cc0:	6d7b      	ldr	r3, [r7, #84]	; 0x54
 8000cc2:	2b39      	cmp	r3, #57	; 0x39
 8000cc4:	dddb      	ble.n	8000c7e <change_digit_1+0x46>
	if(number==1)
 8000cc6:	683b      	ldr	r3, [r7, #0]
 8000cc8:	2b01      	cmp	r3, #1
 8000cca:	d126      	bne.n	8000d1a <change_digit_1+0xe2>
		for(int i = 0; i <= 57; ++i)
 8000ccc:	2300      	movs	r3, #0
 8000cce:	64fb      	str	r3, [r7, #76]	; 0x4c
 8000cd0:	e020      	b.n	8000d14 <change_digit_1+0xdc>
			for(int j = 0; j <= 32; ++j)
 8000cd2:	2300      	movs	r3, #0
 8000cd4:	64bb      	str	r3, [r7, #72]	; 0x48
 8000cd6:	e017      	b.n	8000d08 <change_digit_1+0xd0>
				screen[x+5113+i*480+j] = one_picture_1[k++];
 8000cd8:	6db9      	ldr	r1, [r7, #88]	; 0x58
 8000cda:	1c4b      	adds	r3, r1, #1
 8000cdc:	65bb      	str	r3, [r7, #88]	; 0x58
 8000cde:	6dfb      	ldr	r3, [r7, #92]	; 0x5c
 8000ce0:	f241 32f9 	movw	r2, #5113	; 0x13f9
 8000ce4:	441a      	add	r2, r3
 8000ce6:	6cf8      	ldr	r0, [r7, #76]	; 0x4c
 8000ce8:	4603      	mov	r3, r0
 8000cea:	011b      	lsls	r3, r3, #4
 8000cec:	1a1b      	subs	r3, r3, r0
 8000cee:	015b      	lsls	r3, r3, #5
 8000cf0:	441a      	add	r2, r3
 8000cf2:	6cbb      	ldr	r3, [r7, #72]	; 0x48
 8000cf4:	4413      	add	r3, r2
 8000cf6:	4a8d      	ldr	r2, [pc, #564]	; (8000f2c <change_digit_1+0x2f4>)
 8000cf8:	f832 1011 	ldrh.w	r1, [r2, r1, lsl #1]
 8000cfc:	4a8a      	ldr	r2, [pc, #552]	; (8000f28 <change_digit_1+0x2f0>)
 8000cfe:	f822 1013 	strh.w	r1, [r2, r3, lsl #1]
			for(int j = 0; j <= 32; ++j)
 8000d02:	6cbb      	ldr	r3, [r7, #72]	; 0x48
 8000d04:	3301      	adds	r3, #1
 8000d06:	64bb      	str	r3, [r7, #72]	; 0x48
 8000d08:	6cbb      	ldr	r3, [r7, #72]	; 0x48
 8000d0a:	2b20      	cmp	r3, #32
 8000d0c:	dde4      	ble.n	8000cd8 <change_digit_1+0xa0>
		for(int i = 0; i <= 57; ++i)
 8000d0e:	6cfb      	ldr	r3, [r7, #76]	; 0x4c
 8000d10:	3301      	adds	r3, #1
 8000d12:	64fb      	str	r3, [r7, #76]	; 0x4c
 8000d14:	6cfb      	ldr	r3, [r7, #76]	; 0x4c
 8000d16:	2b39      	cmp	r3, #57	; 0x39
 8000d18:	dddb      	ble.n	8000cd2 <change_digit_1+0x9a>
	if(number==2)
 8000d1a:	683b      	ldr	r3, [r7, #0]
 8000d1c:	2b02      	cmp	r3, #2
 8000d1e:	d126      	bne.n	8000d6e <change_digit_1+0x136>
		for(int i = 0; i <= 57; ++i)
 8000d20:	2300      	movs	r3, #0
 8000d22:	647b      	str	r3, [r7, #68]	; 0x44
 8000d24:	e020      	b.n	8000d68 <change_digit_1+0x130>
			for(int j = 0; j <= 32; ++j)
 8000d26:	2300      	movs	r3, #0
 8000d28:	643b      	str	r3, [r7, #64]	; 0x40
 8000d2a:	e017      	b.n	8000d5c <change_digit_1+0x124>
				screen[x+5113+i*480+j] = two_picture_1[k++];
 8000d2c:	6db9      	ldr	r1, [r7, #88]	; 0x58
 8000d2e:	1c4b      	adds	r3, r1, #1
 8000d30:	65bb      	str	r3, [r7, #88]	; 0x58
 8000d32:	6dfb      	ldr	r3, [r7, #92]	; 0x5c
 8000d34:	f241 32f9 	movw	r2, #5113	; 0x13f9
 8000d38:	441a      	add	r2, r3
 8000d3a:	6c78      	ldr	r0, [r7, #68]	; 0x44
 8000d3c:	4603      	mov	r3, r0
 8000d3e:	011b      	lsls	r3, r3, #4
 8000d40:	1a1b      	subs	r3, r3, r0
 8000d42:	015b      	lsls	r3, r3, #5
 8000d44:	441a      	add	r2, r3
 8000d46:	6c3b      	ldr	r3, [r7, #64]	; 0x40
 8000d48:	4413      	add	r3, r2
 8000d4a:	4a79      	ldr	r2, [pc, #484]	; (8000f30 <change_digit_1+0x2f8>)
 8000d4c:	f832 1011 	ldrh.w	r1, [r2, r1, lsl #1]
 8000d50:	4a75      	ldr	r2, [pc, #468]	; (8000f28 <change_digit_1+0x2f0>)
 8000d52:	f822 1013 	strh.w	r1, [r2, r3, lsl #1]
			for(int j = 0; j <= 32; ++j)
 8000d56:	6c3b      	ldr	r3, [r7, #64]	; 0x40
 8000d58:	3301      	adds	r3, #1
 8000d5a:	643b      	str	r3, [r7, #64]	; 0x40
 8000d5c:	6c3b      	ldr	r3, [r7, #64]	; 0x40
 8000d5e:	2b20      	cmp	r3, #32
 8000d60:	dde4      	ble.n	8000d2c <change_digit_1+0xf4>
		for(int i = 0; i <= 57; ++i)
 8000d62:	6c7b      	ldr	r3, [r7, #68]	; 0x44
 8000d64:	3301      	adds	r3, #1
 8000d66:	647b      	str	r3, [r7, #68]	; 0x44
 8000d68:	6c7b      	ldr	r3, [r7, #68]	; 0x44
 8000d6a:	2b39      	cmp	r3, #57	; 0x39
 8000d6c:	dddb      	ble.n	8000d26 <change_digit_1+0xee>
	if(number==3)
 8000d6e:	683b      	ldr	r3, [r7, #0]
 8000d70:	2b03      	cmp	r3, #3
 8000d72:	d126      	bne.n	8000dc2 <change_digit_1+0x18a>
		for(int i = 0; i <= 57; ++i)
 8000d74:	2300      	movs	r3, #0
 8000d76:	63fb      	str	r3, [r7, #60]	; 0x3c
 8000d78:	e020      	b.n	8000dbc <change_digit_1+0x184>
			for(int j = 0; j <= 32; ++j)
 8000d7a:	2300      	movs	r3, #0
 8000d7c:	63bb      	str	r3, [r7, #56]	; 0x38
 8000d7e:	e017      	b.n	8000db0 <change_digit_1+0x178>
				screen[x+5113+i*480+j] = three_picture_1[k++];
 8000d80:	6db9      	ldr	r1, [r7, #88]	; 0x58
 8000d82:	1c4b      	adds	r3, r1, #1
 8000d84:	65bb      	str	r3, [r7, #88]	; 0x58
 8000d86:	6dfb      	ldr	r3, [r7, #92]	; 0x5c
 8000d88:	f241 32f9 	movw	r2, #5113	; 0x13f9
 8000d8c:	441a      	add	r2, r3
 8000d8e:	6bf8      	ldr	r0, [r7, #60]	; 0x3c
 8000d90:	4603      	mov	r3, r0
 8000d92:	011b      	lsls	r3, r3, #4
 8000d94:	1a1b      	subs	r3, r3, r0
 8000d96:	015b      	lsls	r3, r3, #5
 8000d98:	441a      	add	r2, r3
 8000d9a:	6bbb      	ldr	r3, [r7, #56]	; 0x38
 8000d9c:	4413      	add	r3, r2
 8000d9e:	4a65      	ldr	r2, [pc, #404]	; (8000f34 <change_digit_1+0x2fc>)
 8000da0:	f832 1011 	ldrh.w	r1, [r2, r1, lsl #1]
 8000da4:	4a60      	ldr	r2, [pc, #384]	; (8000f28 <change_digit_1+0x2f0>)
 8000da6:	f822 1013 	strh.w	r1, [r2, r3, lsl #1]
			for(int j = 0; j <= 32; ++j)
 8000daa:	6bbb      	ldr	r3, [r7, #56]	; 0x38
 8000dac:	3301      	adds	r3, #1
 8000dae:	63bb      	str	r3, [r7, #56]	; 0x38
 8000db0:	6bbb      	ldr	r3, [r7, #56]	; 0x38
 8000db2:	2b20      	cmp	r3, #32
 8000db4:	dde4      	ble.n	8000d80 <change_digit_1+0x148>
		for(int i = 0; i <= 57; ++i)
 8000db6:	6bfb      	ldr	r3, [r7, #60]	; 0x3c
 8000db8:	3301      	adds	r3, #1
 8000dba:	63fb      	str	r3, [r7, #60]	; 0x3c
 8000dbc:	6bfb      	ldr	r3, [r7, #60]	; 0x3c
 8000dbe:	2b39      	cmp	r3, #57	; 0x39
 8000dc0:	dddb      	ble.n	8000d7a <change_digit_1+0x142>
	if(number==4)
 8000dc2:	683b      	ldr	r3, [r7, #0]
 8000dc4:	2b04      	cmp	r3, #4
 8000dc6:	d126      	bne.n	8000e16 <change_digit_1+0x1de>
		for(int i = 0; i <= 57; ++i)
 8000dc8:	2300      	movs	r3, #0
 8000dca:	637b      	str	r3, [r7, #52]	; 0x34
 8000dcc:	e020      	b.n	8000e10 <change_digit_1+0x1d8>
			for(int j = 0; j <= 32; ++j)
 8000dce:	2300      	movs	r3, #0
 8000dd0:	633b      	str	r3, [r7, #48]	; 0x30
 8000dd2:	e017      	b.n	8000e04 <change_digit_1+0x1cc>
				screen[x+5113+i*480+j] = four_picture_1[k++];
 8000dd4:	6db9      	ldr	r1, [r7, #88]	; 0x58
 8000dd6:	1c4b      	adds	r3, r1, #1
 8000dd8:	65bb      	str	r3, [r7, #88]	; 0x58
 8000dda:	6dfb      	ldr	r3, [r7, #92]	; 0x5c
 8000ddc:	f241 32f9 	movw	r2, #5113	; 0x13f9
 8000de0:	441a      	add	r2, r3
 8000de2:	6b78      	ldr	r0, [r7, #52]	; 0x34
 8000de4:	4603      	mov	r3, r0
 8000de6:	011b      	lsls	r3, r3, #4
 8000de8:	1a1b      	subs	r3, r3, r0
 8000dea:	015b      	lsls	r3, r3, #5
 8000dec:	441a      	add	r2, r3
 8000dee:	6b3b      	ldr	r3, [r7, #48]	; 0x30
 8000df0:	4413      	add	r3, r2
 8000df2:	4a51      	ldr	r2, [pc, #324]	; (8000f38 <change_digit_1+0x300>)
 8000df4:	f832 1011 	ldrh.w	r1, [r2, r1, lsl #1]
 8000df8:	4a4b      	ldr	r2, [pc, #300]	; (8000f28 <change_digit_1+0x2f0>)
 8000dfa:	f822 1013 	strh.w	r1, [r2, r3, lsl #1]
			for(int j = 0; j <= 32; ++j)
 8000dfe:	6b3b      	ldr	r3, [r7, #48]	; 0x30
 8000e00:	3301      	adds	r3, #1
 8000e02:	633b      	str	r3, [r7, #48]	; 0x30
 8000e04:	6b3b      	ldr	r3, [r7, #48]	; 0x30
 8000e06:	2b20      	cmp	r3, #32
 8000e08:	dde4      	ble.n	8000dd4 <change_digit_1+0x19c>
		for(int i = 0; i <= 57; ++i)
 8000e0a:	6b7b      	ldr	r3, [r7, #52]	; 0x34
 8000e0c:	3301      	adds	r3, #1
 8000e0e:	637b      	str	r3, [r7, #52]	; 0x34
 8000e10:	6b7b      	ldr	r3, [r7, #52]	; 0x34
 8000e12:	2b39      	cmp	r3, #57	; 0x39
 8000e14:	dddb      	ble.n	8000dce <change_digit_1+0x196>
	if(number==5)
 8000e16:	683b      	ldr	r3, [r7, #0]
 8000e18:	2b05      	cmp	r3, #5
 8000e1a:	d126      	bne.n	8000e6a <change_digit_1+0x232>
		for(int i = 0; i <= 57; ++i)
 8000e1c:	2300      	movs	r3, #0
 8000e1e:	62fb      	str	r3, [r7, #44]	; 0x2c
 8000e20:	e020      	b.n	8000e64 <change_digit_1+0x22c>
			for(int j = 0; j <= 32; ++j)
 8000e22:	2300      	movs	r3, #0
 8000e24:	62bb      	str	r3, [r7, #40]	; 0x28
 8000e26:	e017      	b.n	8000e58 <change_digit_1+0x220>
				screen[x+5113+i*480+j] = five_picture_1[k++];
 8000e28:	6db9      	ldr	r1, [r7, #88]	; 0x58
 8000e2a:	1c4b      	adds	r3, r1, #1
 8000e2c:	65bb      	str	r3, [r7, #88]	; 0x58
 8000e2e:	6dfb      	ldr	r3, [r7, #92]	; 0x5c
 8000e30:	f241 32f9 	movw	r2, #5113	; 0x13f9
 8000e34:	441a      	add	r2, r3
 8000e36:	6af8      	ldr	r0, [r7, #44]	; 0x2c
 8000e38:	4603      	mov	r3, r0
 8000e3a:	011b      	lsls	r3, r3, #4
 8000e3c:	1a1b      	subs	r3, r3, r0
 8000e3e:	015b      	lsls	r3, r3, #5
 8000e40:	441a      	add	r2, r3
 8000e42:	6abb      	ldr	r3, [r7, #40]	; 0x28
 8000e44:	4413      	add	r3, r2
 8000e46:	4a3d      	ldr	r2, [pc, #244]	; (8000f3c <change_digit_1+0x304>)
 8000e48:	f832 1011 	ldrh.w	r1, [r2, r1, lsl #1]
 8000e4c:	4a36      	ldr	r2, [pc, #216]	; (8000f28 <change_digit_1+0x2f0>)
 8000e4e:	f822 1013 	strh.w	r1, [r2, r3, lsl #1]
			for(int j = 0; j <= 32; ++j)
 8000e52:	6abb      	ldr	r3, [r7, #40]	; 0x28
 8000e54:	3301      	adds	r3, #1
 8000e56:	62bb      	str	r3, [r7, #40]	; 0x28
 8000e58:	6abb      	ldr	r3, [r7, #40]	; 0x28
 8000e5a:	2b20      	cmp	r3, #32
 8000e5c:	dde4      	ble.n	8000e28 <change_digit_1+0x1f0>
		for(int i = 0; i <= 57; ++i)
 8000e5e:	6afb      	ldr	r3, [r7, #44]	; 0x2c
 8000e60:	3301      	adds	r3, #1
 8000e62:	62fb      	str	r3, [r7, #44]	; 0x2c
 8000e64:	6afb      	ldr	r3, [r7, #44]	; 0x2c
 8000e66:	2b39      	cmp	r3, #57	; 0x39
 8000e68:	dddb      	ble.n	8000e22 <change_digit_1+0x1ea>
	if(number==6)
 8000e6a:	683b      	ldr	r3, [r7, #0]
 8000e6c:	2b06      	cmp	r3, #6
 8000e6e:	d126      	bne.n	8000ebe <change_digit_1+0x286>
		for(int i = 0; i <= 57; ++i)
 8000e70:	2300      	movs	r3, #0
 8000e72:	627b      	str	r3, [r7, #36]	; 0x24
 8000e74:	e020      	b.n	8000eb8 <change_digit_1+0x280>
			for(int j = 0; j <= 32; ++j)
 8000e76:	2300      	movs	r3, #0
 8000e78:	623b      	str	r3, [r7, #32]
 8000e7a:	e017      	b.n	8000eac <change_digit_1+0x274>
				screen[x+5113+i*480+j] = six_picture_1[k++];
 8000e7c:	6db9      	ldr	r1, [r7, #88]	; 0x58
 8000e7e:	1c4b      	adds	r3, r1, #1
 8000e80:	65bb      	str	r3, [r7, #88]	; 0x58
 8000e82:	6dfb      	ldr	r3, [r7, #92]	; 0x5c
 8000e84:	f241 32f9 	movw	r2, #5113	; 0x13f9
 8000e88:	441a      	add	r2, r3
 8000e8a:	6a78      	ldr	r0, [r7, #36]	; 0x24
 8000e8c:	4603      	mov	r3, r0
 8000e8e:	011b      	lsls	r3, r3, #4
 8000e90:	1a1b      	subs	r3, r3, r0
 8000e92:	015b      	lsls	r3, r3, #5
 8000e94:	441a      	add	r2, r3
 8000e96:	6a3b      	ldr	r3, [r7, #32]
 8000e98:	4413      	add	r3, r2
 8000e9a:	4a29      	ldr	r2, [pc, #164]	; (8000f40 <change_digit_1+0x308>)
 8000e9c:	f832 1011 	ldrh.w	r1, [r2, r1, lsl #1]
 8000ea0:	4a21      	ldr	r2, [pc, #132]	; (8000f28 <change_digit_1+0x2f0>)
 8000ea2:	f822 1013 	strh.w	r1, [r2, r3, lsl #1]
			for(int j = 0; j <= 32; ++j)
 8000ea6:	6a3b      	ldr	r3, [r7, #32]
 8000ea8:	3301      	adds	r3, #1
 8000eaa:	623b      	str	r3, [r7, #32]
 8000eac:	6a3b      	ldr	r3, [r7, #32]
 8000eae:	2b20      	cmp	r3, #32
 8000eb0:	dde4      	ble.n	8000e7c <change_digit_1+0x244>
		for(int i = 0; i <= 57; ++i)
 8000eb2:	6a7b      	ldr	r3, [r7, #36]	; 0x24
 8000eb4:	3301      	adds	r3, #1
 8000eb6:	627b      	str	r3, [r7, #36]	; 0x24
 8000eb8:	6a7b      	ldr	r3, [r7, #36]	; 0x24
 8000eba:	2b39      	cmp	r3, #57	; 0x39
 8000ebc:	dddb      	ble.n	8000e76 <change_digit_1+0x23e>
	if(number==7)
 8000ebe:	683b      	ldr	r3, [r7, #0]
 8000ec0:	2b07      	cmp	r3, #7
 8000ec2:	d126      	bne.n	8000f12 <change_digit_1+0x2da>
		for(int i = 0; i <= 57; ++i)
 8000ec4:	2300      	movs	r3, #0
 8000ec6:	61fb      	str	r3, [r7, #28]
 8000ec8:	e020      	b.n	8000f0c <change_digit_1+0x2d4>
			for(int j = 0; j <= 32; ++j)
 8000eca:	2300      	movs	r3, #0
 8000ecc:	61bb      	str	r3, [r7, #24]
 8000ece:	e017      	b.n	8000f00 <change_digit_1+0x2c8>
				screen[x+5113+i*480+j] = seven_picture_1[k++];
 8000ed0:	6db9      	ldr	r1, [r7, #88]	; 0x58
 8000ed2:	1c4b      	adds	r3, r1, #1
 8000ed4:	65bb      	str	r3, [r7, #88]	; 0x58
 8000ed6:	6dfb      	ldr	r3, [r7, #92]	; 0x5c
 8000ed8:	f241 32f9 	movw	r2, #5113	; 0x13f9
 8000edc:	441a      	add	r2, r3
 8000ede:	69f8      	ldr	r0, [r7, #28]
 8000ee0:	4603      	mov	r3, r0
 8000ee2:	011b      	lsls	r3, r3, #4
 8000ee4:	1a1b      	subs	r3, r3, r0
 8000ee6:	015b      	lsls	r3, r3, #5
 8000ee8:	441a      	add	r2, r3
 8000eea:	69bb      	ldr	r3, [r7, #24]
 8000eec:	4413      	add	r3, r2
 8000eee:	4a15      	ldr	r2, [pc, #84]	; (8000f44 <change_digit_1+0x30c>)
 8000ef0:	f832 1011 	ldrh.w	r1, [r2, r1, lsl #1]
 8000ef4:	4a0c      	ldr	r2, [pc, #48]	; (8000f28 <change_digit_1+0x2f0>)
 8000ef6:	f822 1013 	strh.w	r1, [r2, r3, lsl #1]
			for(int j = 0; j <= 32; ++j)
 8000efa:	69bb      	ldr	r3, [r7, #24]
 8000efc:	3301      	adds	r3, #1
 8000efe:	61bb      	str	r3, [r7, #24]
 8000f00:	69bb      	ldr	r3, [r7, #24]
 8000f02:	2b20      	cmp	r3, #32
 8000f04:	dde4      	ble.n	8000ed0 <change_digit_1+0x298>
		for(int i = 0; i <= 57; ++i)
 8000f06:	69fb      	ldr	r3, [r7, #28]
 8000f08:	3301      	adds	r3, #1
 8000f0a:	61fb      	str	r3, [r7, #28]
 8000f0c:	69fb      	ldr	r3, [r7, #28]
 8000f0e:	2b39      	cmp	r3, #57	; 0x39
 8000f10:	dddb      	ble.n	8000eca <change_digit_1+0x292>
	if(number==8)
 8000f12:	683b      	ldr	r3, [r7, #0]
 8000f14:	2b08      	cmp	r3, #8
 8000f16:	d138      	bne.n	8000f8a <change_digit_1+0x352>
		for(int i = 0; i <= 57; ++i)
 8000f18:	2300      	movs	r3, #0
 8000f1a:	617b      	str	r3, [r7, #20]
 8000f1c:	e032      	b.n	8000f84 <change_digit_1+0x34c>
			for(int j = 0; j <= 32; ++j)
 8000f1e:	2300      	movs	r3, #0
 8000f20:	613b      	str	r3, [r7, #16]
 8000f22:	e029      	b.n	8000f78 <change_digit_1+0x340>
 8000f24:	08009b98 	.word	0x08009b98
 8000f28:	20000020 	.word	0x20000020
 8000f2c:	080050d4 	.word	0x080050d4
 8000f30:	08008ca4 	.word	0x08008ca4
 8000f34:	08007db0 	.word	0x08007db0
 8000f38:	080032ec 	.word	0x080032ec
 8000f3c:	080023f8 	.word	0x080023f8
 8000f40:	08006ebc 	.word	0x08006ebc
 8000f44:	08005fc8 	.word	0x08005fc8
				screen[x+5113+i*480+j] = eigth_picture_1[k++];
 8000f48:	6db9      	ldr	r1, [r7, #88]	; 0x58
 8000f4a:	1c4b      	adds	r3, r1, #1
 8000f4c:	65bb      	str	r3, [r7, #88]	; 0x58
 8000f4e:	6dfb      	ldr	r3, [r7, #92]	; 0x5c
 8000f50:	f241 32f9 	movw	r2, #5113	; 0x13f9
 8000f54:	441a      	add	r2, r3
 8000f56:	6978      	ldr	r0, [r7, #20]
 8000f58:	4603      	mov	r3, r0
 8000f5a:	011b      	lsls	r3, r3, #4
 8000f5c:	1a1b      	subs	r3, r3, r0
 8000f5e:	015b      	lsls	r3, r3, #5
 8000f60:	441a      	add	r2, r3
 8000f62:	693b      	ldr	r3, [r7, #16]
 8000f64:	4413      	add	r3, r2
 8000f66:	4a25      	ldr	r2, [pc, #148]	; (8000ffc <change_digit_1+0x3c4>)
 8000f68:	f832 1011 	ldrh.w	r1, [r2, r1, lsl #1]
 8000f6c:	4a24      	ldr	r2, [pc, #144]	; (8001000 <change_digit_1+0x3c8>)
 8000f6e:	f822 1013 	strh.w	r1, [r2, r3, lsl #1]
			for(int j = 0; j <= 32; ++j)
 8000f72:	693b      	ldr	r3, [r7, #16]
 8000f74:	3301      	adds	r3, #1
 8000f76:	613b      	str	r3, [r7, #16]
 8000f78:	693b      	ldr	r3, [r7, #16]
 8000f7a:	2b20      	cmp	r3, #32
 8000f7c:	dde4      	ble.n	8000f48 <change_digit_1+0x310>
		for(int i = 0; i <= 57; ++i)
 8000f7e:	697b      	ldr	r3, [r7, #20]
 8000f80:	3301      	adds	r3, #1
 8000f82:	617b      	str	r3, [r7, #20]
 8000f84:	697b      	ldr	r3, [r7, #20]
 8000f86:	2b39      	cmp	r3, #57	; 0x39
 8000f88:	ddc9      	ble.n	8000f1e <change_digit_1+0x2e6>
	if(number==9)
 8000f8a:	683b      	ldr	r3, [r7, #0]
 8000f8c:	2b09      	cmp	r3, #9
 8000f8e:	d126      	bne.n	8000fde <change_digit_1+0x3a6>
		for(int i = 0; i <= 57; ++i)
 8000f90:	2300      	movs	r3, #0
 8000f92:	60fb      	str	r3, [r7, #12]
 8000f94:	e020      	b.n	8000fd8 <change_digit_1+0x3a0>
			for(int j = 0; j <= 32; ++j)
 8000f96:	2300      	movs	r3, #0
 8000f98:	60bb      	str	r3, [r7, #8]
 8000f9a:	e017      	b.n	8000fcc <change_digit_1+0x394>
				screen[x+5113+i*480+j] = nine_picture_1[k++];
 8000f9c:	6db9      	ldr	r1, [r7, #88]	; 0x58
 8000f9e:	1c4b      	adds	r3, r1, #1
 8000fa0:	65bb      	str	r3, [r7, #88]	; 0x58
 8000fa2:	6dfb      	ldr	r3, [r7, #92]	; 0x5c
 8000fa4:	f241 32f9 	movw	r2, #5113	; 0x13f9
 8000fa8:	441a      	add	r2, r3
 8000faa:	68f8      	ldr	r0, [r7, #12]
 8000fac:	4603      	mov	r3, r0
 8000fae:	011b      	lsls	r3, r3, #4
 8000fb0:	1a1b      	subs	r3, r3, r0
 8000fb2:	015b      	lsls	r3, r3, #5
 8000fb4:	441a      	add	r2, r3
 8000fb6:	68bb      	ldr	r3, [r7, #8]
 8000fb8:	4413      	add	r3, r2
 8000fba:	4a12      	ldr	r2, [pc, #72]	; (8001004 <change_digit_1+0x3cc>)
 8000fbc:	f832 1011 	ldrh.w	r1, [r2, r1, lsl #1]
 8000fc0:	4a0f      	ldr	r2, [pc, #60]	; (8001000 <change_digit_1+0x3c8>)
 8000fc2:	f822 1013 	strh.w	r1, [r2, r3, lsl #1]
			for(int j = 0; j <= 32; ++j)
 8000fc6:	68bb      	ldr	r3, [r7, #8]
 8000fc8:	3301      	adds	r3, #1
 8000fca:	60bb      	str	r3, [r7, #8]
 8000fcc:	68bb      	ldr	r3, [r7, #8]
 8000fce:	2b20      	cmp	r3, #32
 8000fd0:	dde4      	ble.n	8000f9c <change_digit_1+0x364>
		for(int i = 0; i <= 57; ++i)
 8000fd2:	68fb      	ldr	r3, [r7, #12]
 8000fd4:	3301      	adds	r3, #1
 8000fd6:	60fb      	str	r3, [r7, #12]
 8000fd8:	68fb      	ldr	r3, [r7, #12]
 8000fda:	2b39      	cmp	r3, #57	; 0x39
 8000fdc:	dddb      	ble.n	8000f96 <change_digit_1+0x35e>
	LTDC_Layer2->CFBAR = (uint32_t)screen;
 8000fde:	4b0a      	ldr	r3, [pc, #40]	; (8001008 <change_digit_1+0x3d0>)
 8000fe0:	4a07      	ldr	r2, [pc, #28]	; (8001000 <change_digit_1+0x3c8>)
 8000fe2:	629a      	str	r2, [r3, #40]	; 0x28
	LTDC->SRCR |= LTDC_SRCR_VBR;
 8000fe4:	4b09      	ldr	r3, [pc, #36]	; (800100c <change_digit_1+0x3d4>)
 8000fe6:	6a5b      	ldr	r3, [r3, #36]	; 0x24
 8000fe8:	4a08      	ldr	r2, [pc, #32]	; (800100c <change_digit_1+0x3d4>)
 8000fea:	f043 0302 	orr.w	r3, r3, #2
 8000fee:	6253      	str	r3, [r2, #36]	; 0x24
}
 8000ff0:	bf00      	nop
 8000ff2:	3764      	adds	r7, #100	; 0x64
 8000ff4:	46bd      	mov	sp, r7
 8000ff6:	f85d 7b04 	ldr.w	r7, [sp], #4
 8000ffa:	4770      	bx	lr
 8000ffc:	0800aa8c 	.word	0x0800aa8c
 8001000:	20000020 	.word	0x20000020
 8001004:	080041e0 	.word	0x080041e0
 8001008:	40016904 	.word	0x40016904
 800100c:	40016800 	.word	0x40016800

08001010 <change_digit_2>:

void change_digit_2(int poz, int number)
{
 8001010:	b580      	push	{r7, lr}
 8001012:	b098      	sub	sp, #96	; 0x60
 8001014:	af00      	add	r7, sp, #0
 8001016:	6078      	str	r0, [r7, #4]
 8001018:	6039      	str	r1, [r7, #0]
	change_digit_1(poz, number);
 800101a:	6839      	ldr	r1, [r7, #0]
 800101c:	6878      	ldr	r0, [r7, #4]
 800101e:	f7ff fe0b 	bl	8000c38 <change_digit_1>
	int x = 0;
 8001022:	2300      	movs	r3, #0
 8001024:	65fb      	str	r3, [r7, #92]	; 0x5c
	int k = 0;
 8001026:	2300      	movs	r3, #0
 8001028:	65bb      	str	r3, [r7, #88]	; 0x58

	if(poz==1)
 800102a:	687b      	ldr	r3, [r7, #4]
 800102c:	2b01      	cmp	r3, #1
 800102e:	d101      	bne.n	8001034 <change_digit_2+0x24>
		x = 0;
 8001030:	2300      	movs	r3, #0
 8001032:	65fb      	str	r3, [r7, #92]	; 0x5c
	if(poz==2)
 8001034:	687b      	ldr	r3, [r7, #4]
 8001036:	2b02      	cmp	r3, #2
 8001038:	d101      	bne.n	800103e <change_digit_2+0x2e>
		x = 110;
 800103a:	236e      	movs	r3, #110	; 0x6e
 800103c:	65fb      	str	r3, [r7, #92]	; 0x5c
	if(poz==3)
 800103e:	687b      	ldr	r3, [r7, #4]
 8001040:	2b03      	cmp	r3, #3
 8001042:	d101      	bne.n	8001048 <change_digit_2+0x38>
		x = 246;
 8001044:	23f6      	movs	r3, #246	; 0xf6
 8001046:	65fb      	str	r3, [r7, #92]	; 0x5c
	if(poz==4)
 8001048:	687b      	ldr	r3, [r7, #4]
 800104a:	2b04      	cmp	r3, #4
 800104c:	d102      	bne.n	8001054 <change_digit_2+0x44>
		x = 356;
 800104e:	f44f 73b2 	mov.w	r3, #356	; 0x164
 8001052:	65fb      	str	r3, [r7, #92]	; 0x5c

	if(number==0)
 8001054:	683b      	ldr	r3, [r7, #0]
 8001056:	2b00      	cmp	r3, #0
 8001058:	d126      	bne.n	80010a8 <change_digit_2+0x98>
		for(int i = 0; i <= 173; ++i)
 800105a:	2300      	movs	r3, #0
 800105c:	657b      	str	r3, [r7, #84]	; 0x54
 800105e:	e020      	b.n	80010a2 <change_digit_2+0x92>
			for(int j = 0; j <= 98; ++j)
 8001060:	2300      	movs	r3, #0
 8001062:	653b      	str	r3, [r7, #80]	; 0x50
 8001064:	e017      	b.n	8001096 <change_digit_2+0x86>
				screen[x+42253+i*480+j] = zero_picture_2[k++];
 8001066:	6db9      	ldr	r1, [r7, #88]	; 0x58
 8001068:	1c4b      	adds	r3, r1, #1
 800106a:	65bb      	str	r3, [r7, #88]	; 0x58
 800106c:	6dfb      	ldr	r3, [r7, #92]	; 0x5c
 800106e:	f24a 520d 	movw	r2, #42253	; 0xa50d
 8001072:	441a      	add	r2, r3
 8001074:	6d78      	ldr	r0, [r7, #84]	; 0x54
 8001076:	4603      	mov	r3, r0
 8001078:	011b      	lsls	r3, r3, #4
 800107a:	1a1b      	subs	r3, r3, r0
 800107c:	015b      	lsls	r3, r3, #5
 800107e:	441a      	add	r2, r3
 8001080:	6d3b      	ldr	r3, [r7, #80]	; 0x50
 8001082:	4413      	add	r3, r2
 8001084:	4aa0      	ldr	r2, [pc, #640]	; (8001308 <change_digit_2+0x2f8>)
 8001086:	f832 1011 	ldrh.w	r1, [r2, r1, lsl #1]
 800108a:	4aa0      	ldr	r2, [pc, #640]	; (800130c <change_digit_2+0x2fc>)
 800108c:	f822 1013 	strh.w	r1, [r2, r3, lsl #1]
			for(int j = 0; j <= 98; ++j)
 8001090:	6d3b      	ldr	r3, [r7, #80]	; 0x50
 8001092:	3301      	adds	r3, #1
 8001094:	653b      	str	r3, [r7, #80]	; 0x50
 8001096:	6d3b      	ldr	r3, [r7, #80]	; 0x50
 8001098:	2b62      	cmp	r3, #98	; 0x62
 800109a:	dde4      	ble.n	8001066 <change_digit_2+0x56>
		for(int i = 0; i <= 173; ++i)
 800109c:	6d7b      	ldr	r3, [r7, #84]	; 0x54
 800109e:	3301      	adds	r3, #1
 80010a0:	657b      	str	r3, [r7, #84]	; 0x54
 80010a2:	6d7b      	ldr	r3, [r7, #84]	; 0x54
 80010a4:	2bad      	cmp	r3, #173	; 0xad
 80010a6:	dddb      	ble.n	8001060 <change_digit_2+0x50>
	if(number==1)
 80010a8:	683b      	ldr	r3, [r7, #0]
 80010aa:	2b01      	cmp	r3, #1
 80010ac:	d126      	bne.n	80010fc <change_digit_2+0xec>
		for(int i = 0; i <= 173; ++i)
 80010ae:	2300      	movs	r3, #0
 80010b0:	64fb      	str	r3, [r7, #76]	; 0x4c
 80010b2:	e020      	b.n	80010f6 <change_digit_2+0xe6>
			for(int j = 0; j <= 98; ++j)
 80010b4:	2300      	movs	r3, #0
 80010b6:	64bb      	str	r3, [r7, #72]	; 0x48
 80010b8:	e017      	b.n	80010ea <change_digit_2+0xda>
				screen[x+42253+i*480+j] = one_picture_2[k++];
 80010ba:	6db9      	ldr	r1, [r7, #88]	; 0x58
 80010bc:	1c4b      	adds	r3, r1, #1
 80010be:	65bb      	str	r3, [r7, #88]	; 0x58
 80010c0:	6dfb      	ldr	r3, [r7, #92]	; 0x5c
 80010c2:	f24a 520d 	movw	r2, #42253	; 0xa50d
 80010c6:	441a      	add	r2, r3
 80010c8:	6cf8      	ldr	r0, [r7, #76]	; 0x4c
 80010ca:	4603      	mov	r3, r0
 80010cc:	011b      	lsls	r3, r3, #4
 80010ce:	1a1b      	subs	r3, r3, r0
 80010d0:	015b      	lsls	r3, r3, #5
 80010d2:	441a      	add	r2, r3
 80010d4:	6cbb      	ldr	r3, [r7, #72]	; 0x48
 80010d6:	4413      	add	r3, r2
 80010d8:	4a8d      	ldr	r2, [pc, #564]	; (8001310 <change_digit_2+0x300>)
 80010da:	f832 1011 	ldrh.w	r1, [r2, r1, lsl #1]
 80010de:	4a8b      	ldr	r2, [pc, #556]	; (800130c <change_digit_2+0x2fc>)
 80010e0:	f822 1013 	strh.w	r1, [r2, r3, lsl #1]
			for(int j = 0; j <= 98; ++j)
 80010e4:	6cbb      	ldr	r3, [r7, #72]	; 0x48
 80010e6:	3301      	adds	r3, #1
 80010e8:	64bb      	str	r3, [r7, #72]	; 0x48
 80010ea:	6cbb      	ldr	r3, [r7, #72]	; 0x48
 80010ec:	2b62      	cmp	r3, #98	; 0x62
 80010ee:	dde4      	ble.n	80010ba <change_digit_2+0xaa>
		for(int i = 0; i <= 173; ++i)
 80010f0:	6cfb      	ldr	r3, [r7, #76]	; 0x4c
 80010f2:	3301      	adds	r3, #1
 80010f4:	64fb      	str	r3, [r7, #76]	; 0x4c
 80010f6:	6cfb      	ldr	r3, [r7, #76]	; 0x4c
 80010f8:	2bad      	cmp	r3, #173	; 0xad
 80010fa:	dddb      	ble.n	80010b4 <change_digit_2+0xa4>
	if(number==2)
 80010fc:	683b      	ldr	r3, [r7, #0]
 80010fe:	2b02      	cmp	r3, #2
 8001100:	d126      	bne.n	8001150 <change_digit_2+0x140>
		for(int i = 0; i <= 173; ++i)
 8001102:	2300      	movs	r3, #0
 8001104:	647b      	str	r3, [r7, #68]	; 0x44
 8001106:	e020      	b.n	800114a <change_digit_2+0x13a>
			for(int j = 0; j <= 98; ++j)
 8001108:	2300      	movs	r3, #0
 800110a:	643b      	str	r3, [r7, #64]	; 0x40
 800110c:	e017      	b.n	800113e <change_digit_2+0x12e>
				screen[x+42253+i*480+j] = two_picture_2[k++];
 800110e:	6db9      	ldr	r1, [r7, #88]	; 0x58
 8001110:	1c4b      	adds	r3, r1, #1
 8001112:	65bb      	str	r3, [r7, #88]	; 0x58
 8001114:	6dfb      	ldr	r3, [r7, #92]	; 0x5c
 8001116:	f24a 520d 	movw	r2, #42253	; 0xa50d
 800111a:	441a      	add	r2, r3
 800111c:	6c78      	ldr	r0, [r7, #68]	; 0x44
 800111e:	4603      	mov	r3, r0
 8001120:	011b      	lsls	r3, r3, #4
 8001122:	1a1b      	subs	r3, r3, r0
 8001124:	015b      	lsls	r3, r3, #5
 8001126:	441a      	add	r2, r3
 8001128:	6c3b      	ldr	r3, [r7, #64]	; 0x40
 800112a:	4413      	add	r3, r2
 800112c:	4a79      	ldr	r2, [pc, #484]	; (8001314 <change_digit_2+0x304>)
 800112e:	f832 1011 	ldrh.w	r1, [r2, r1, lsl #1]
 8001132:	4a76      	ldr	r2, [pc, #472]	; (800130c <change_digit_2+0x2fc>)
 8001134:	f822 1013 	strh.w	r1, [r2, r3, lsl #1]
			for(int j = 0; j <= 98; ++j)
 8001138:	6c3b      	ldr	r3, [r7, #64]	; 0x40
 800113a:	3301      	adds	r3, #1
 800113c:	643b      	str	r3, [r7, #64]	; 0x40
 800113e:	6c3b      	ldr	r3, [r7, #64]	; 0x40
 8001140:	2b62      	cmp	r3, #98	; 0x62
 8001142:	dde4      	ble.n	800110e <change_digit_2+0xfe>
		for(int i = 0; i <= 173; ++i)
 8001144:	6c7b      	ldr	r3, [r7, #68]	; 0x44
 8001146:	3301      	adds	r3, #1
 8001148:	647b      	str	r3, [r7, #68]	; 0x44
 800114a:	6c7b      	ldr	r3, [r7, #68]	; 0x44
 800114c:	2bad      	cmp	r3, #173	; 0xad
 800114e:	dddb      	ble.n	8001108 <change_digit_2+0xf8>
	if(number==3)
 8001150:	683b      	ldr	r3, [r7, #0]
 8001152:	2b03      	cmp	r3, #3
 8001154:	d126      	bne.n	80011a4 <change_digit_2+0x194>
		for(int i = 0; i <= 173; ++i)
 8001156:	2300      	movs	r3, #0
 8001158:	63fb      	str	r3, [r7, #60]	; 0x3c
 800115a:	e020      	b.n	800119e <change_digit_2+0x18e>
			for(int j = 0; j <= 98; ++j)
 800115c:	2300      	movs	r3, #0
 800115e:	63bb      	str	r3, [r7, #56]	; 0x38
 8001160:	e017      	b.n	8001192 <change_digit_2+0x182>
				screen[x+42253+i*480+j] = three_picture_2[k++];
 8001162:	6db9      	ldr	r1, [r7, #88]	; 0x58
 8001164:	1c4b      	adds	r3, r1, #1
 8001166:	65bb      	str	r3, [r7, #88]	; 0x58
 8001168:	6dfb      	ldr	r3, [r7, #92]	; 0x5c
 800116a:	f24a 520d 	movw	r2, #42253	; 0xa50d
 800116e:	441a      	add	r2, r3
 8001170:	6bf8      	ldr	r0, [r7, #60]	; 0x3c
 8001172:	4603      	mov	r3, r0
 8001174:	011b      	lsls	r3, r3, #4
 8001176:	1a1b      	subs	r3, r3, r0
 8001178:	015b      	lsls	r3, r3, #5
 800117a:	441a      	add	r2, r3
 800117c:	6bbb      	ldr	r3, [r7, #56]	; 0x38
 800117e:	4413      	add	r3, r2
 8001180:	4a65      	ldr	r2, [pc, #404]	; (8001318 <change_digit_2+0x308>)
 8001182:	f832 1011 	ldrh.w	r1, [r2, r1, lsl #1]
 8001186:	4a61      	ldr	r2, [pc, #388]	; (800130c <change_digit_2+0x2fc>)
 8001188:	f822 1013 	strh.w	r1, [r2, r3, lsl #1]
			for(int j = 0; j <= 98; ++j)
 800118c:	6bbb      	ldr	r3, [r7, #56]	; 0x38
 800118e:	3301      	adds	r3, #1
 8001190:	63bb      	str	r3, [r7, #56]	; 0x38
 8001192:	6bbb      	ldr	r3, [r7, #56]	; 0x38
 8001194:	2b62      	cmp	r3, #98	; 0x62
 8001196:	dde4      	ble.n	8001162 <change_digit_2+0x152>
		for(int i = 0; i <= 173; ++i)
 8001198:	6bfb      	ldr	r3, [r7, #60]	; 0x3c
 800119a:	3301      	adds	r3, #1
 800119c:	63fb      	str	r3, [r7, #60]	; 0x3c
 800119e:	6bfb      	ldr	r3, [r7, #60]	; 0x3c
 80011a0:	2bad      	cmp	r3, #173	; 0xad
 80011a2:	dddb      	ble.n	800115c <change_digit_2+0x14c>
	if(number==4)
 80011a4:	683b      	ldr	r3, [r7, #0]
 80011a6:	2b04      	cmp	r3, #4
 80011a8:	d126      	bne.n	80011f8 <change_digit_2+0x1e8>
		for(int i = 0; i <= 173; ++i)
 80011aa:	2300      	movs	r3, #0
 80011ac:	637b      	str	r3, [r7, #52]	; 0x34
 80011ae:	e020      	b.n	80011f2 <change_digit_2+0x1e2>
			for(int j = 0; j <= 98; ++j)
 80011b0:	2300      	movs	r3, #0
 80011b2:	633b      	str	r3, [r7, #48]	; 0x30
 80011b4:	e017      	b.n	80011e6 <change_digit_2+0x1d6>
				screen[x+42253+i*480+j] = four_picture_2[k++];
 80011b6:	6db9      	ldr	r1, [r7, #88]	; 0x58
 80011b8:	1c4b      	adds	r3, r1, #1
 80011ba:	65bb      	str	r3, [r7, #88]	; 0x58
 80011bc:	6dfb      	ldr	r3, [r7, #92]	; 0x5c
 80011be:	f24a 520d 	movw	r2, #42253	; 0xa50d
 80011c2:	441a      	add	r2, r3
 80011c4:	6b78      	ldr	r0, [r7, #52]	; 0x34
 80011c6:	4603      	mov	r3, r0
 80011c8:	011b      	lsls	r3, r3, #4
 80011ca:	1a1b      	subs	r3, r3, r0
 80011cc:	015b      	lsls	r3, r3, #5
 80011ce:	441a      	add	r2, r3
 80011d0:	6b3b      	ldr	r3, [r7, #48]	; 0x30
 80011d2:	4413      	add	r3, r2
 80011d4:	4a51      	ldr	r2, [pc, #324]	; (800131c <change_digit_2+0x30c>)
 80011d6:	f832 1011 	ldrh.w	r1, [r2, r1, lsl #1]
 80011da:	4a4c      	ldr	r2, [pc, #304]	; (800130c <change_digit_2+0x2fc>)
 80011dc:	f822 1013 	strh.w	r1, [r2, r3, lsl #1]
			for(int j = 0; j <= 98; ++j)
 80011e0:	6b3b      	ldr	r3, [r7, #48]	; 0x30
 80011e2:	3301      	adds	r3, #1
 80011e4:	633b      	str	r3, [r7, #48]	; 0x30
 80011e6:	6b3b      	ldr	r3, [r7, #48]	; 0x30
 80011e8:	2b62      	cmp	r3, #98	; 0x62
 80011ea:	dde4      	ble.n	80011b6 <change_digit_2+0x1a6>
		for(int i = 0; i <= 173; ++i)
 80011ec:	6b7b      	ldr	r3, [r7, #52]	; 0x34
 80011ee:	3301      	adds	r3, #1
 80011f0:	637b      	str	r3, [r7, #52]	; 0x34
 80011f2:	6b7b      	ldr	r3, [r7, #52]	; 0x34
 80011f4:	2bad      	cmp	r3, #173	; 0xad
 80011f6:	dddb      	ble.n	80011b0 <change_digit_2+0x1a0>
	if(number==5)
 80011f8:	683b      	ldr	r3, [r7, #0]
 80011fa:	2b05      	cmp	r3, #5
 80011fc:	d126      	bne.n	800124c <change_digit_2+0x23c>
		for(int i = 0; i <= 173; ++i)
 80011fe:	2300      	movs	r3, #0
 8001200:	62fb      	str	r3, [r7, #44]	; 0x2c
 8001202:	e020      	b.n	8001246 <change_digit_2+0x236>
			for(int j = 0; j <= 98; ++j)
 8001204:	2300      	movs	r3, #0
 8001206:	62bb      	str	r3, [r7, #40]	; 0x28
 8001208:	e017      	b.n	800123a <change_digit_2+0x22a>
				screen[x+42253+i*480+j] = five_picture_2[k++];
 800120a:	6db9      	ldr	r1, [r7, #88]	; 0x58
 800120c:	1c4b      	adds	r3, r1, #1
 800120e:	65bb      	str	r3, [r7, #88]	; 0x58
 8001210:	6dfb      	ldr	r3, [r7, #92]	; 0x5c
 8001212:	f24a 520d 	movw	r2, #42253	; 0xa50d
 8001216:	441a      	add	r2, r3
 8001218:	6af8      	ldr	r0, [r7, #44]	; 0x2c
 800121a:	4603      	mov	r3, r0
 800121c:	011b      	lsls	r3, r3, #4
 800121e:	1a1b      	subs	r3, r3, r0
 8001220:	015b      	lsls	r3, r3, #5
 8001222:	441a      	add	r2, r3
 8001224:	6abb      	ldr	r3, [r7, #40]	; 0x28
 8001226:	4413      	add	r3, r2
 8001228:	4a3d      	ldr	r2, [pc, #244]	; (8001320 <change_digit_2+0x310>)
 800122a:	f832 1011 	ldrh.w	r1, [r2, r1, lsl #1]
 800122e:	4a37      	ldr	r2, [pc, #220]	; (800130c <change_digit_2+0x2fc>)
 8001230:	f822 1013 	strh.w	r1, [r2, r3, lsl #1]
			for(int j = 0; j <= 98; ++j)
 8001234:	6abb      	ldr	r3, [r7, #40]	; 0x28
 8001236:	3301      	adds	r3, #1
 8001238:	62bb      	str	r3, [r7, #40]	; 0x28
 800123a:	6abb      	ldr	r3, [r7, #40]	; 0x28
 800123c:	2b62      	cmp	r3, #98	; 0x62
 800123e:	dde4      	ble.n	800120a <change_digit_2+0x1fa>
		for(int i = 0; i <= 173; ++i)
 8001240:	6afb      	ldr	r3, [r7, #44]	; 0x2c
 8001242:	3301      	adds	r3, #1
 8001244:	62fb      	str	r3, [r7, #44]	; 0x2c
 8001246:	6afb      	ldr	r3, [r7, #44]	; 0x2c
 8001248:	2bad      	cmp	r3, #173	; 0xad
 800124a:	dddb      	ble.n	8001204 <change_digit_2+0x1f4>
	if(number==6)
 800124c:	683b      	ldr	r3, [r7, #0]
 800124e:	2b06      	cmp	r3, #6
 8001250:	d126      	bne.n	80012a0 <change_digit_2+0x290>
		for(int i = 0; i <= 173; ++i)
 8001252:	2300      	movs	r3, #0
 8001254:	627b      	str	r3, [r7, #36]	; 0x24
 8001256:	e020      	b.n	800129a <change_digit_2+0x28a>
			for(int j = 0; j <= 98; ++j)
 8001258:	2300      	movs	r3, #0
 800125a:	623b      	str	r3, [r7, #32]
 800125c:	e017      	b.n	800128e <change_digit_2+0x27e>
				screen[x+42253+i*480+j] = six_picture_2[k++];
 800125e:	6db9      	ldr	r1, [r7, #88]	; 0x58
 8001260:	1c4b      	adds	r3, r1, #1
 8001262:	65bb      	str	r3, [r7, #88]	; 0x58
 8001264:	6dfb      	ldr	r3, [r7, #92]	; 0x5c
 8001266:	f24a 520d 	movw	r2, #42253	; 0xa50d
 800126a:	441a      	add	r2, r3
 800126c:	6a78      	ldr	r0, [r7, #36]	; 0x24
 800126e:	4603      	mov	r3, r0
 8001270:	011b      	lsls	r3, r3, #4
 8001272:	1a1b      	subs	r3, r3, r0
 8001274:	015b      	lsls	r3, r3, #5
 8001276:	441a      	add	r2, r3
 8001278:	6a3b      	ldr	r3, [r7, #32]
 800127a:	4413      	add	r3, r2
 800127c:	4a29      	ldr	r2, [pc, #164]	; (8001324 <change_digit_2+0x314>)
 800127e:	f832 1011 	ldrh.w	r1, [r2, r1, lsl #1]
 8001282:	4a22      	ldr	r2, [pc, #136]	; (800130c <change_digit_2+0x2fc>)
 8001284:	f822 1013 	strh.w	r1, [r2, r3, lsl #1]
			for(int j = 0; j <= 98; ++j)
 8001288:	6a3b      	ldr	r3, [r7, #32]
 800128a:	3301      	adds	r3, #1
 800128c:	623b      	str	r3, [r7, #32]
 800128e:	6a3b      	ldr	r3, [r7, #32]
 8001290:	2b62      	cmp	r3, #98	; 0x62
 8001292:	dde4      	ble.n	800125e <change_digit_2+0x24e>
		for(int i = 0; i <= 173; ++i)
 8001294:	6a7b      	ldr	r3, [r7, #36]	; 0x24
 8001296:	3301      	adds	r3, #1
 8001298:	627b      	str	r3, [r7, #36]	; 0x24
 800129a:	6a7b      	ldr	r3, [r7, #36]	; 0x24
 800129c:	2bad      	cmp	r3, #173	; 0xad
 800129e:	dddb      	ble.n	8001258 <change_digit_2+0x248>
	if(number==7)
 80012a0:	683b      	ldr	r3, [r7, #0]
 80012a2:	2b07      	cmp	r3, #7
 80012a4:	d126      	bne.n	80012f4 <change_digit_2+0x2e4>
		for(int i = 0; i <= 173; ++i)
 80012a6:	2300      	movs	r3, #0
 80012a8:	61fb      	str	r3, [r7, #28]
 80012aa:	e020      	b.n	80012ee <change_digit_2+0x2de>
			for(int j = 0; j <= 98; ++j)
 80012ac:	2300      	movs	r3, #0
 80012ae:	61bb      	str	r3, [r7, #24]
 80012b0:	e017      	b.n	80012e2 <change_digit_2+0x2d2>
				screen[x+42253+i*480+j] = seven_picture_2[k++];
 80012b2:	6db9      	ldr	r1, [r7, #88]	; 0x58
 80012b4:	1c4b      	adds	r3, r1, #1
 80012b6:	65bb      	str	r3, [r7, #88]	; 0x58
 80012b8:	6dfb      	ldr	r3, [r7, #92]	; 0x5c
 80012ba:	f24a 520d 	movw	r2, #42253	; 0xa50d
 80012be:	441a      	add	r2, r3
 80012c0:	69f8      	ldr	r0, [r7, #28]
 80012c2:	4603      	mov	r3, r0
 80012c4:	011b      	lsls	r3, r3, #4
 80012c6:	1a1b      	subs	r3, r3, r0
 80012c8:	015b      	lsls	r3, r3, #5
 80012ca:	441a      	add	r2, r3
 80012cc:	69bb      	ldr	r3, [r7, #24]
 80012ce:	4413      	add	r3, r2
 80012d0:	4a15      	ldr	r2, [pc, #84]	; (8001328 <change_digit_2+0x318>)
 80012d2:	f832 1011 	ldrh.w	r1, [r2, r1, lsl #1]
 80012d6:	4a0d      	ldr	r2, [pc, #52]	; (800130c <change_digit_2+0x2fc>)
 80012d8:	f822 1013 	strh.w	r1, [r2, r3, lsl #1]
			for(int j = 0; j <= 98; ++j)
 80012dc:	69bb      	ldr	r3, [r7, #24]
 80012de:	3301      	adds	r3, #1
 80012e0:	61bb      	str	r3, [r7, #24]
 80012e2:	69bb      	ldr	r3, [r7, #24]
 80012e4:	2b62      	cmp	r3, #98	; 0x62
 80012e6:	dde4      	ble.n	80012b2 <change_digit_2+0x2a2>
		for(int i = 0; i <= 173; ++i)
 80012e8:	69fb      	ldr	r3, [r7, #28]
 80012ea:	3301      	adds	r3, #1
 80012ec:	61fb      	str	r3, [r7, #28]
 80012ee:	69fb      	ldr	r3, [r7, #28]
 80012f0:	2bad      	cmp	r3, #173	; 0xad
 80012f2:	dddb      	ble.n	80012ac <change_digit_2+0x29c>
	if(number==8)
 80012f4:	683b      	ldr	r3, [r7, #0]
 80012f6:	2b08      	cmp	r3, #8
 80012f8:	d139      	bne.n	800136e <change_digit_2+0x35e>
		for(int i = 0; i <= 173; ++i)
 80012fa:	2300      	movs	r3, #0
 80012fc:	617b      	str	r3, [r7, #20]
 80012fe:	e033      	b.n	8001368 <change_digit_2+0x358>
			for(int j = 0; j <= 98; ++j)
 8001300:	2300      	movs	r3, #0
 8001302:	613b      	str	r3, [r7, #16]
 8001304:	e02a      	b.n	800135c <change_digit_2+0x34c>
 8001306:	bf00      	nop
 8001308:	0804ee20 	.word	0x0804ee20
 800130c:	20000020 	.word	0x20000020
 8001310:	08024d3c 	.word	0x08024d3c
 8001314:	0804678c 	.word	0x0804678c
 8001318:	0803e0f8 	.word	0x0803e0f8
 800131c:	08014014 	.word	0x08014014
 8001320:	0800b980 	.word	0x0800b980
 8001324:	08035a64 	.word	0x08035a64
 8001328:	0802d3d0 	.word	0x0802d3d0
				screen[x+42253+i*480+j] = eigth_picture_2[k++];
 800132c:	6db9      	ldr	r1, [r7, #88]	; 0x58
 800132e:	1c4b      	adds	r3, r1, #1
 8001330:	65bb      	str	r3, [r7, #88]	; 0x58
 8001332:	6dfb      	ldr	r3, [r7, #92]	; 0x5c
 8001334:	f24a 520d 	movw	r2, #42253	; 0xa50d
 8001338:	441a      	add	r2, r3
 800133a:	6978      	ldr	r0, [r7, #20]
 800133c:	4603      	mov	r3, r0
 800133e:	011b      	lsls	r3, r3, #4
 8001340:	1a1b      	subs	r3, r3, r0
 8001342:	015b      	lsls	r3, r3, #5
 8001344:	441a      	add	r2, r3
 8001346:	693b      	ldr	r3, [r7, #16]
 8001348:	4413      	add	r3, r2
 800134a:	4a24      	ldr	r2, [pc, #144]	; (80013dc <change_digit_2+0x3cc>)
 800134c:	f832 1011 	ldrh.w	r1, [r2, r1, lsl #1]
 8001350:	4a23      	ldr	r2, [pc, #140]	; (80013e0 <change_digit_2+0x3d0>)
 8001352:	f822 1013 	strh.w	r1, [r2, r3, lsl #1]
			for(int j = 0; j <= 98; ++j)
 8001356:	693b      	ldr	r3, [r7, #16]
 8001358:	3301      	adds	r3, #1
 800135a:	613b      	str	r3, [r7, #16]
 800135c:	693b      	ldr	r3, [r7, #16]
 800135e:	2b62      	cmp	r3, #98	; 0x62
 8001360:	dde4      	ble.n	800132c <change_digit_2+0x31c>
		for(int i = 0; i <= 173; ++i)
 8001362:	697b      	ldr	r3, [r7, #20]
 8001364:	3301      	adds	r3, #1
 8001366:	617b      	str	r3, [r7, #20]
 8001368:	697b      	ldr	r3, [r7, #20]
 800136a:	2bad      	cmp	r3, #173	; 0xad
 800136c:	ddc8      	ble.n	8001300 <change_digit_2+0x2f0>
	if(number==9)
 800136e:	683b      	ldr	r3, [r7, #0]
 8001370:	2b09      	cmp	r3, #9
 8001372:	d126      	bne.n	80013c2 <change_digit_2+0x3b2>
		for(int i = 0; i <= 173; ++i)
 8001374:	2300      	movs	r3, #0
 8001376:	60fb      	str	r3, [r7, #12]
 8001378:	e020      	b.n	80013bc <change_digit_2+0x3ac>
			for(int j = 0; j <= 98; ++j)
 800137a:	2300      	movs	r3, #0
 800137c:	60bb      	str	r3, [r7, #8]
 800137e:	e017      	b.n	80013b0 <change_digit_2+0x3a0>
				screen[x+42253+i*480+j] = nine_picture_2[k++];
 8001380:	6db9      	ldr	r1, [r7, #88]	; 0x58
 8001382:	1c4b      	adds	r3, r1, #1
 8001384:	65bb      	str	r3, [r7, #88]	; 0x58
 8001386:	6dfb      	ldr	r3, [r7, #92]	; 0x5c
 8001388:	f24a 520d 	movw	r2, #42253	; 0xa50d
 800138c:	441a      	add	r2, r3
 800138e:	68f8      	ldr	r0, [r7, #12]
 8001390:	4603      	mov	r3, r0
 8001392:	011b      	lsls	r3, r3, #4
 8001394:	1a1b      	subs	r3, r3, r0
 8001396:	015b      	lsls	r3, r3, #5
 8001398:	441a      	add	r2, r3
 800139a:	68bb      	ldr	r3, [r7, #8]
 800139c:	4413      	add	r3, r2
 800139e:	4a11      	ldr	r2, [pc, #68]	; (80013e4 <change_digit_2+0x3d4>)
 80013a0:	f832 1011 	ldrh.w	r1, [r2, r1, lsl #1]
 80013a4:	4a0e      	ldr	r2, [pc, #56]	; (80013e0 <change_digit_2+0x3d0>)
 80013a6:	f822 1013 	strh.w	r1, [r2, r3, lsl #1]
			for(int j = 0; j <= 98; ++j)
 80013aa:	68bb      	ldr	r3, [r7, #8]
 80013ac:	3301      	adds	r3, #1
 80013ae:	60bb      	str	r3, [r7, #8]
 80013b0:	68bb      	ldr	r3, [r7, #8]
 80013b2:	2b62      	cmp	r3, #98	; 0x62
 80013b4:	dde4      	ble.n	8001380 <change_digit_2+0x370>
		for(int i = 0; i <= 173; ++i)
 80013b6:	68fb      	ldr	r3, [r7, #12]
 80013b8:	3301      	adds	r3, #1
 80013ba:	60fb      	str	r3, [r7, #12]
 80013bc:	68fb      	ldr	r3, [r7, #12]
 80013be:	2bad      	cmp	r3, #173	; 0xad
 80013c0:	dddb      	ble.n	800137a <change_digit_2+0x36a>
	LTDC_Layer2->CFBAR = (uint32_t)screen;
 80013c2:	4b09      	ldr	r3, [pc, #36]	; (80013e8 <change_digit_2+0x3d8>)
 80013c4:	4a06      	ldr	r2, [pc, #24]	; (80013e0 <change_digit_2+0x3d0>)
 80013c6:	629a      	str	r2, [r3, #40]	; 0x28
	LTDC->SRCR |= LTDC_SRCR_VBR;
 80013c8:	4b08      	ldr	r3, [pc, #32]	; (80013ec <change_digit_2+0x3dc>)
 80013ca:	6a5b      	ldr	r3, [r3, #36]	; 0x24
 80013cc:	4a07      	ldr	r2, [pc, #28]	; (80013ec <change_digit_2+0x3dc>)
 80013ce:	f043 0302 	orr.w	r3, r3, #2
 80013d2:	6253      	str	r3, [r2, #36]	; 0x24
}
 80013d4:	bf00      	nop
 80013d6:	3760      	adds	r7, #96	; 0x60
 80013d8:	46bd      	mov	sp, r7
 80013da:	bd80      	pop	{r7, pc}
 80013dc:	080574b4 	.word	0x080574b4
 80013e0:	20000020 	.word	0x20000020
 80013e4:	0801c6a8 	.word	0x0801c6a8
 80013e8:	40016904 	.word	0x40016904
 80013ec:	40016800 	.word	0x40016800

080013f0 <change_digit_3>:

void change_digit_3(int number)
{
 80013f0:	b480      	push	{r7}
 80013f2:	b0c7      	sub	sp, #284	; 0x11c
 80013f4:	af00      	add	r7, sp, #0
 80013f6:	1d3b      	adds	r3, r7, #4
 80013f8:	6018      	str	r0, [r3, #0]
	int k = 0;
 80013fa:	2300      	movs	r3, #0
 80013fc:	f8c7 3114 	str.w	r3, [r7, #276]	; 0x114

	if(number==0)
 8001400:	1d3b      	adds	r3, r7, #4
 8001402:	681b      	ldr	r3, [r3, #0]
 8001404:	2b00      	cmp	r3, #0
 8001406:	f040 809c 	bne.w	8001542 <change_digit_3+0x152>
	{
		for(int i = 0; i <= 57; ++i)
 800140a:	2300      	movs	r3, #0
 800140c:	f8c7 3110 	str.w	r3, [r7, #272]	; 0x110
 8001410:	e029      	b.n	8001466 <change_digit_3+0x76>
			for(int j = 0; j <= 32; ++j)
 8001412:	2300      	movs	r3, #0
 8001414:	f8c7 310c 	str.w	r3, [r7, #268]	; 0x10c
 8001418:	e01c      	b.n	8001454 <change_digit_3+0x64>
				screen[76+4861+i*480+j] = zero_picture_3[k++];
 800141a:	f8d7 2114 	ldr.w	r2, [r7, #276]	; 0x114
 800141e:	1c53      	adds	r3, r2, #1
 8001420:	f8c7 3114 	str.w	r3, [r7, #276]	; 0x114
 8001424:	f8d7 1110 	ldr.w	r1, [r7, #272]	; 0x110
 8001428:	460b      	mov	r3, r1
 800142a:	011b      	lsls	r3, r3, #4
 800142c:	1a5b      	subs	r3, r3, r1
 800142e:	015b      	lsls	r3, r3, #5
 8001430:	4619      	mov	r1, r3
 8001432:	f241 3349 	movw	r3, #4937	; 0x1349
 8001436:	440b      	add	r3, r1
 8001438:	f8d7 110c 	ldr.w	r1, [r7, #268]	; 0x10c
 800143c:	440b      	add	r3, r1
 800143e:	49cd      	ldr	r1, [pc, #820]	; (8001774 <change_digit_3+0x384>)
 8001440:	f831 1012 	ldrh.w	r1, [r1, r2, lsl #1]
 8001444:	4acc      	ldr	r2, [pc, #816]	; (8001778 <change_digit_3+0x388>)
 8001446:	f822 1013 	strh.w	r1, [r2, r3, lsl #1]
			for(int j = 0; j <= 32; ++j)
 800144a:	f8d7 310c 	ldr.w	r3, [r7, #268]	; 0x10c
 800144e:	3301      	adds	r3, #1
 8001450:	f8c7 310c 	str.w	r3, [r7, #268]	; 0x10c
 8001454:	f8d7 310c 	ldr.w	r3, [r7, #268]	; 0x10c
 8001458:	2b20      	cmp	r3, #32
 800145a:	ddde      	ble.n	800141a <change_digit_3+0x2a>
		for(int i = 0; i <= 57; ++i)
 800145c:	f8d7 3110 	ldr.w	r3, [r7, #272]	; 0x110
 8001460:	3301      	adds	r3, #1
 8001462:	f8c7 3110 	str.w	r3, [r7, #272]	; 0x110
 8001466:	f8d7 3110 	ldr.w	r3, [r7, #272]	; 0x110
 800146a:	2b39      	cmp	r3, #57	; 0x39
 800146c:	ddd1      	ble.n	8001412 <change_digit_3+0x22>
		k = 0;
 800146e:	2300      	movs	r3, #0
 8001470:	f8c7 3114 	str.w	r3, [r7, #276]	; 0x114
		for(int i = 0; i <= 57; ++i)
 8001474:	2300      	movs	r3, #0
 8001476:	f8c7 3108 	str.w	r3, [r7, #264]	; 0x108
 800147a:	e029      	b.n	80014d0 <change_digit_3+0xe0>
			for(int j = 0; j <= 32; ++j)
 800147c:	2300      	movs	r3, #0
 800147e:	f8c7 3104 	str.w	r3, [r7, #260]	; 0x104
 8001482:	e01c      	b.n	80014be <change_digit_3+0xce>
				screen[38+4861+i*480+j] = none_picture_3[k++];
 8001484:	f8d7 2114 	ldr.w	r2, [r7, #276]	; 0x114
 8001488:	1c53      	adds	r3, r2, #1
 800148a:	f8c7 3114 	str.w	r3, [r7, #276]	; 0x114
 800148e:	f8d7 1108 	ldr.w	r1, [r7, #264]	; 0x108
 8001492:	460b      	mov	r3, r1
 8001494:	011b      	lsls	r3, r3, #4
 8001496:	1a5b      	subs	r3, r3, r1
 8001498:	015b      	lsls	r3, r3, #5
 800149a:	4619      	mov	r1, r3
 800149c:	f241 3323 	movw	r3, #4899	; 0x1323
 80014a0:	440b      	add	r3, r1
 80014a2:	f8d7 1104 	ldr.w	r1, [r7, #260]	; 0x104
 80014a6:	440b      	add	r3, r1
 80014a8:	49b4      	ldr	r1, [pc, #720]	; (800177c <change_digit_3+0x38c>)
 80014aa:	f831 1012 	ldrh.w	r1, [r1, r2, lsl #1]
 80014ae:	4ab2      	ldr	r2, [pc, #712]	; (8001778 <change_digit_3+0x388>)
 80014b0:	f822 1013 	strh.w	r1, [r2, r3, lsl #1]
			for(int j = 0; j <= 32; ++j)
 80014b4:	f8d7 3104 	ldr.w	r3, [r7, #260]	; 0x104
 80014b8:	3301      	adds	r3, #1
 80014ba:	f8c7 3104 	str.w	r3, [r7, #260]	; 0x104
 80014be:	f8d7 3104 	ldr.w	r3, [r7, #260]	; 0x104
 80014c2:	2b20      	cmp	r3, #32
 80014c4:	ddde      	ble.n	8001484 <change_digit_3+0x94>
		for(int i = 0; i <= 57; ++i)
 80014c6:	f8d7 3108 	ldr.w	r3, [r7, #264]	; 0x108
 80014ca:	3301      	adds	r3, #1
 80014cc:	f8c7 3108 	str.w	r3, [r7, #264]	; 0x108
 80014d0:	f8d7 3108 	ldr.w	r3, [r7, #264]	; 0x108
 80014d4:	2b39      	cmp	r3, #57	; 0x39
 80014d6:	ddd1      	ble.n	800147c <change_digit_3+0x8c>
		k = 0;
 80014d8:	2300      	movs	r3, #0
 80014da:	f8c7 3114 	str.w	r3, [r7, #276]	; 0x114
		for(int i = 0; i <= 57; ++i)
 80014de:	2300      	movs	r3, #0
 80014e0:	f8c7 3100 	str.w	r3, [r7, #256]	; 0x100
 80014e4:	e029      	b.n	800153a <change_digit_3+0x14a>
			for(int j = 0; j <= 32; ++j)
 80014e6:	2300      	movs	r3, #0
 80014e8:	f8c7 30fc 	str.w	r3, [r7, #252]	; 0xfc
 80014ec:	e01c      	b.n	8001528 <change_digit_3+0x138>
				screen[4861+i*480+j] = none_picture_3[k++];
 80014ee:	f8d7 2114 	ldr.w	r2, [r7, #276]	; 0x114
 80014f2:	1c53      	adds	r3, r2, #1
 80014f4:	f8c7 3114 	str.w	r3, [r7, #276]	; 0x114
 80014f8:	f8d7 1100 	ldr.w	r1, [r7, #256]	; 0x100
 80014fc:	460b      	mov	r3, r1
 80014fe:	011b      	lsls	r3, r3, #4
 8001500:	1a5b      	subs	r3, r3, r1
 8001502:	015b      	lsls	r3, r3, #5
 8001504:	4619      	mov	r1, r3
 8001506:	f241 23fd 	movw	r3, #4861	; 0x12fd
 800150a:	440b      	add	r3, r1
 800150c:	f8d7 10fc 	ldr.w	r1, [r7, #252]	; 0xfc
 8001510:	440b      	add	r3, r1
 8001512:	499a      	ldr	r1, [pc, #616]	; (800177c <change_digit_3+0x38c>)
 8001514:	f831 1012 	ldrh.w	r1, [r1, r2, lsl #1]
 8001518:	4a97      	ldr	r2, [pc, #604]	; (8001778 <change_digit_3+0x388>)
 800151a:	f822 1013 	strh.w	r1, [r2, r3, lsl #1]
			for(int j = 0; j <= 32; ++j)
 800151e:	f8d7 30fc 	ldr.w	r3, [r7, #252]	; 0xfc
 8001522:	3301      	adds	r3, #1
 8001524:	f8c7 30fc 	str.w	r3, [r7, #252]	; 0xfc
 8001528:	f8d7 30fc 	ldr.w	r3, [r7, #252]	; 0xfc
 800152c:	2b20      	cmp	r3, #32
 800152e:	ddde      	ble.n	80014ee <change_digit_3+0xfe>
		for(int i = 0; i <= 57; ++i)
 8001530:	f8d7 3100 	ldr.w	r3, [r7, #256]	; 0x100
 8001534:	3301      	adds	r3, #1
 8001536:	f8c7 3100 	str.w	r3, [r7, #256]	; 0x100
 800153a:	f8d7 3100 	ldr.w	r3, [r7, #256]	; 0x100
 800153e:	2b39      	cmp	r3, #57	; 0x39
 8001540:	ddd1      	ble.n	80014e6 <change_digit_3+0xf6>
	}

	if(number==10)
 8001542:	1d3b      	adds	r3, r7, #4
 8001544:	681b      	ldr	r3, [r3, #0]
 8001546:	2b0a      	cmp	r3, #10
 8001548:	f040 809c 	bne.w	8001684 <change_digit_3+0x294>
	{
		for(int i = 0; i <= 57; ++i)
 800154c:	2300      	movs	r3, #0
 800154e:	f8c7 30f8 	str.w	r3, [r7, #248]	; 0xf8
 8001552:	e029      	b.n	80015a8 <change_digit_3+0x1b8>
			for(int j = 0; j <= 32; ++j)
 8001554:	2300      	movs	r3, #0
 8001556:	f8c7 30f4 	str.w	r3, [r7, #244]	; 0xf4
 800155a:	e01c      	b.n	8001596 <change_digit_3+0x1a6>
				screen[76+4861+i*480+j] = zero_picture_3[k++];
 800155c:	f8d7 2114 	ldr.w	r2, [r7, #276]	; 0x114
 8001560:	1c53      	adds	r3, r2, #1
 8001562:	f8c7 3114 	str.w	r3, [r7, #276]	; 0x114
 8001566:	f8d7 10f8 	ldr.w	r1, [r7, #248]	; 0xf8
 800156a:	460b      	mov	r3, r1
 800156c:	011b      	lsls	r3, r3, #4
 800156e:	1a5b      	subs	r3, r3, r1
 8001570:	015b      	lsls	r3, r3, #5
 8001572:	4619      	mov	r1, r3
 8001574:	f241 3349 	movw	r3, #4937	; 0x1349
 8001578:	440b      	add	r3, r1
 800157a:	f8d7 10f4 	ldr.w	r1, [r7, #244]	; 0xf4
 800157e:	440b      	add	r3, r1
 8001580:	497c      	ldr	r1, [pc, #496]	; (8001774 <change_digit_3+0x384>)
 8001582:	f831 1012 	ldrh.w	r1, [r1, r2, lsl #1]
 8001586:	4a7c      	ldr	r2, [pc, #496]	; (8001778 <change_digit_3+0x388>)
 8001588:	f822 1013 	strh.w	r1, [r2, r3, lsl #1]
			for(int j = 0; j <= 32; ++j)
 800158c:	f8d7 30f4 	ldr.w	r3, [r7, #244]	; 0xf4
 8001590:	3301      	adds	r3, #1
 8001592:	f8c7 30f4 	str.w	r3, [r7, #244]	; 0xf4
 8001596:	f8d7 30f4 	ldr.w	r3, [r7, #244]	; 0xf4
 800159a:	2b20      	cmp	r3, #32
 800159c:	ddde      	ble.n	800155c <change_digit_3+0x16c>
		for(int i = 0; i <= 57; ++i)
 800159e:	f8d7 30f8 	ldr.w	r3, [r7, #248]	; 0xf8
 80015a2:	3301      	adds	r3, #1
 80015a4:	f8c7 30f8 	str.w	r3, [r7, #248]	; 0xf8
 80015a8:	f8d7 30f8 	ldr.w	r3, [r7, #248]	; 0xf8
 80015ac:	2b39      	cmp	r3, #57	; 0x39
 80015ae:	ddd1      	ble.n	8001554 <change_digit_3+0x164>
		k = 0;
 80015b0:	2300      	movs	r3, #0
 80015b2:	f8c7 3114 	str.w	r3, [r7, #276]	; 0x114
		for(int i = 0; i <= 57; ++i)
 80015b6:	2300      	movs	r3, #0
 80015b8:	f8c7 30f0 	str.w	r3, [r7, #240]	; 0xf0
 80015bc:	e029      	b.n	8001612 <change_digit_3+0x222>
			for(int j = 0; j <= 32; ++j)
 80015be:	2300      	movs	r3, #0
 80015c0:	f8c7 30ec 	str.w	r3, [r7, #236]	; 0xec
 80015c4:	e01c      	b.n	8001600 <change_digit_3+0x210>
				screen[38+4861+i*480+j] = one_picture_3[k++];
 80015c6:	f8d7 2114 	ldr.w	r2, [r7, #276]	; 0x114
 80015ca:	1c53      	adds	r3, r2, #1
 80015cc:	f8c7 3114 	str.w	r3, [r7, #276]	; 0x114
 80015d0:	f8d7 10f0 	ldr.w	r1, [r7, #240]	; 0xf0
 80015d4:	460b      	mov	r3, r1
 80015d6:	011b      	lsls	r3, r3, #4
 80015d8:	1a5b      	subs	r3, r3, r1
 80015da:	015b      	lsls	r3, r3, #5
 80015dc:	4619      	mov	r1, r3
 80015de:	f241 3323 	movw	r3, #4899	; 0x1323
 80015e2:	440b      	add	r3, r1
 80015e4:	f8d7 10ec 	ldr.w	r1, [r7, #236]	; 0xec
 80015e8:	440b      	add	r3, r1
 80015ea:	4965      	ldr	r1, [pc, #404]	; (8001780 <change_digit_3+0x390>)
 80015ec:	f831 1012 	ldrh.w	r1, [r1, r2, lsl #1]
 80015f0:	4a61      	ldr	r2, [pc, #388]	; (8001778 <change_digit_3+0x388>)
 80015f2:	f822 1013 	strh.w	r1, [r2, r3, lsl #1]
			for(int j = 0; j <= 32; ++j)
 80015f6:	f8d7 30ec 	ldr.w	r3, [r7, #236]	; 0xec
 80015fa:	3301      	adds	r3, #1
 80015fc:	f8c7 30ec 	str.w	r3, [r7, #236]	; 0xec
 8001600:	f8d7 30ec 	ldr.w	r3, [r7, #236]	; 0xec
 8001604:	2b20      	cmp	r3, #32
 8001606:	ddde      	ble.n	80015c6 <change_digit_3+0x1d6>
		for(int i = 0; i <= 57; ++i)
 8001608:	f8d7 30f0 	ldr.w	r3, [r7, #240]	; 0xf0
 800160c:	3301      	adds	r3, #1
 800160e:	f8c7 30f0 	str.w	r3, [r7, #240]	; 0xf0
 8001612:	f8d7 30f0 	ldr.w	r3, [r7, #240]	; 0xf0
 8001616:	2b39      	cmp	r3, #57	; 0x39
 8001618:	ddd1      	ble.n	80015be <change_digit_3+0x1ce>
		k = 0;
 800161a:	2300      	movs	r3, #0
 800161c:	f8c7 3114 	str.w	r3, [r7, #276]	; 0x114
		for(int i = 0; i <= 57; ++i)
 8001620:	2300      	movs	r3, #0
 8001622:	f8c7 30e8 	str.w	r3, [r7, #232]	; 0xe8
 8001626:	e029      	b.n	800167c <change_digit_3+0x28c>
			for(int j = 0; j <= 32; ++j)
 8001628:	2300      	movs	r3, #0
 800162a:	f8c7 30e4 	str.w	r3, [r7, #228]	; 0xe4
 800162e:	e01c      	b.n	800166a <change_digit_3+0x27a>
				screen[4861+i*480+j] = none_picture_3[k++];
 8001630:	f8d7 2114 	ldr.w	r2, [r7, #276]	; 0x114
 8001634:	1c53      	adds	r3, r2, #1
 8001636:	f8c7 3114 	str.w	r3, [r7, #276]	; 0x114
 800163a:	f8d7 10e8 	ldr.w	r1, [r7, #232]	; 0xe8
 800163e:	460b      	mov	r3, r1
 8001640:	011b      	lsls	r3, r3, #4
 8001642:	1a5b      	subs	r3, r3, r1
 8001644:	015b      	lsls	r3, r3, #5
 8001646:	4619      	mov	r1, r3
 8001648:	f241 23fd 	movw	r3, #4861	; 0x12fd
 800164c:	440b      	add	r3, r1
 800164e:	f8d7 10e4 	ldr.w	r1, [r7, #228]	; 0xe4
 8001652:	440b      	add	r3, r1
 8001654:	4949      	ldr	r1, [pc, #292]	; (800177c <change_digit_3+0x38c>)
 8001656:	f831 1012 	ldrh.w	r1, [r1, r2, lsl #1]
 800165a:	4a47      	ldr	r2, [pc, #284]	; (8001778 <change_digit_3+0x388>)
 800165c:	f822 1013 	strh.w	r1, [r2, r3, lsl #1]
			for(int j = 0; j <= 32; ++j)
 8001660:	f8d7 30e4 	ldr.w	r3, [r7, #228]	; 0xe4
 8001664:	3301      	adds	r3, #1
 8001666:	f8c7 30e4 	str.w	r3, [r7, #228]	; 0xe4
 800166a:	f8d7 30e4 	ldr.w	r3, [r7, #228]	; 0xe4
 800166e:	2b20      	cmp	r3, #32
 8001670:	ddde      	ble.n	8001630 <change_digit_3+0x240>
		for(int i = 0; i <= 57; ++i)
 8001672:	f8d7 30e8 	ldr.w	r3, [r7, #232]	; 0xe8
 8001676:	3301      	adds	r3, #1
 8001678:	f8c7 30e8 	str.w	r3, [r7, #232]	; 0xe8
 800167c:	f8d7 30e8 	ldr.w	r3, [r7, #232]	; 0xe8
 8001680:	2b39      	cmp	r3, #57	; 0x39
 8001682:	ddd1      	ble.n	8001628 <change_digit_3+0x238>
	}

	if(number==20)
 8001684:	1d3b      	adds	r3, r7, #4
 8001686:	681b      	ldr	r3, [r3, #0]
 8001688:	2b14      	cmp	r3, #20
 800168a:	f040 80a7 	bne.w	80017dc <change_digit_3+0x3ec>
	{
		for(int i = 0; i <= 57; ++i)
 800168e:	2300      	movs	r3, #0
 8001690:	f8c7 30e0 	str.w	r3, [r7, #224]	; 0xe0
 8001694:	e029      	b.n	80016ea <change_digit_3+0x2fa>
			for(int j = 0; j <= 32; ++j)
 8001696:	2300      	movs	r3, #0
 8001698:	f8c7 30dc 	str.w	r3, [r7, #220]	; 0xdc
 800169c:	e01c      	b.n	80016d8 <change_digit_3+0x2e8>
				screen[76+4861+i*480+j] = zero_picture_3[k++];
 800169e:	f8d7 2114 	ldr.w	r2, [r7, #276]	; 0x114
 80016a2:	1c53      	adds	r3, r2, #1
 80016a4:	f8c7 3114 	str.w	r3, [r7, #276]	; 0x114
 80016a8:	f8d7 10e0 	ldr.w	r1, [r7, #224]	; 0xe0
 80016ac:	460b      	mov	r3, r1
 80016ae:	011b      	lsls	r3, r3, #4
 80016b0:	1a5b      	subs	r3, r3, r1
 80016b2:	015b      	lsls	r3, r3, #5
 80016b4:	4619      	mov	r1, r3
 80016b6:	f241 3349 	movw	r3, #4937	; 0x1349
 80016ba:	440b      	add	r3, r1
 80016bc:	f8d7 10dc 	ldr.w	r1, [r7, #220]	; 0xdc
 80016c0:	440b      	add	r3, r1
 80016c2:	492c      	ldr	r1, [pc, #176]	; (8001774 <change_digit_3+0x384>)
 80016c4:	f831 1012 	ldrh.w	r1, [r1, r2, lsl #1]
 80016c8:	4a2b      	ldr	r2, [pc, #172]	; (8001778 <change_digit_3+0x388>)
 80016ca:	f822 1013 	strh.w	r1, [r2, r3, lsl #1]
			for(int j = 0; j <= 32; ++j)
 80016ce:	f8d7 30dc 	ldr.w	r3, [r7, #220]	; 0xdc
 80016d2:	3301      	adds	r3, #1
 80016d4:	f8c7 30dc 	str.w	r3, [r7, #220]	; 0xdc
 80016d8:	f8d7 30dc 	ldr.w	r3, [r7, #220]	; 0xdc
 80016dc:	2b20      	cmp	r3, #32
 80016de:	ddde      	ble.n	800169e <change_digit_3+0x2ae>
		for(int i = 0; i <= 57; ++i)
 80016e0:	f8d7 30e0 	ldr.w	r3, [r7, #224]	; 0xe0
 80016e4:	3301      	adds	r3, #1
 80016e6:	f8c7 30e0 	str.w	r3, [r7, #224]	; 0xe0
 80016ea:	f8d7 30e0 	ldr.w	r3, [r7, #224]	; 0xe0
 80016ee:	2b39      	cmp	r3, #57	; 0x39
 80016f0:	ddd1      	ble.n	8001696 <change_digit_3+0x2a6>
		k = 0;
 80016f2:	2300      	movs	r3, #0
 80016f4:	f8c7 3114 	str.w	r3, [r7, #276]	; 0x114
		for(int i = 0; i <= 57; ++i)
 80016f8:	2300      	movs	r3, #0
 80016fa:	f8c7 30d8 	str.w	r3, [r7, #216]	; 0xd8
 80016fe:	e029      	b.n	8001754 <change_digit_3+0x364>
			for(int j = 0; j <= 32; ++j)
 8001700:	2300      	movs	r3, #0
 8001702:	f8c7 30d4 	str.w	r3, [r7, #212]	; 0xd4
 8001706:	e01c      	b.n	8001742 <change_digit_3+0x352>
				screen[38+4861+i*480+j] = two_picture_3[k++];
 8001708:	f8d7 2114 	ldr.w	r2, [r7, #276]	; 0x114
 800170c:	1c53      	adds	r3, r2, #1
 800170e:	f8c7 3114 	str.w	r3, [r7, #276]	; 0x114
 8001712:	f8d7 10d8 	ldr.w	r1, [r7, #216]	; 0xd8
 8001716:	460b      	mov	r3, r1
 8001718:	011b      	lsls	r3, r3, #4
 800171a:	1a5b      	subs	r3, r3, r1
 800171c:	015b      	lsls	r3, r3, #5
 800171e:	4619      	mov	r1, r3
 8001720:	f241 3323 	movw	r3, #4899	; 0x1323
 8001724:	440b      	add	r3, r1
 8001726:	f8d7 10d4 	ldr.w	r1, [r7, #212]	; 0xd4
 800172a:	440b      	add	r3, r1
 800172c:	4915      	ldr	r1, [pc, #84]	; (8001784 <change_digit_3+0x394>)
 800172e:	f831 1012 	ldrh.w	r1, [r1, r2, lsl #1]
 8001732:	4a11      	ldr	r2, [pc, #68]	; (8001778 <change_digit_3+0x388>)
 8001734:	f822 1013 	strh.w	r1, [r2, r3, lsl #1]
			for(int j = 0; j <= 32; ++j)
 8001738:	f8d7 30d4 	ldr.w	r3, [r7, #212]	; 0xd4
 800173c:	3301      	adds	r3, #1
 800173e:	f8c7 30d4 	str.w	r3, [r7, #212]	; 0xd4
 8001742:	f8d7 30d4 	ldr.w	r3, [r7, #212]	; 0xd4
 8001746:	2b20      	cmp	r3, #32
 8001748:	ddde      	ble.n	8001708 <change_digit_3+0x318>
		for(int i = 0; i <= 57; ++i)
 800174a:	f8d7 30d8 	ldr.w	r3, [r7, #216]	; 0xd8
 800174e:	3301      	adds	r3, #1
 8001750:	f8c7 30d8 	str.w	r3, [r7, #216]	; 0xd8
 8001754:	f8d7 30d8 	ldr.w	r3, [r7, #216]	; 0xd8
 8001758:	2b39      	cmp	r3, #57	; 0x39
 800175a:	ddd1      	ble.n	8001700 <change_digit_3+0x310>
		k = 0;
 800175c:	2300      	movs	r3, #0
 800175e:	f8c7 3114 	str.w	r3, [r7, #276]	; 0x114
		for(int i = 0; i <= 57; ++i)
 8001762:	2300      	movs	r3, #0
 8001764:	f8c7 30d0 	str.w	r3, [r7, #208]	; 0xd0
 8001768:	e034      	b.n	80017d4 <change_digit_3+0x3e4>
			for(int j = 0; j <= 32; ++j)
 800176a:	2300      	movs	r3, #0
 800176c:	f8c7 30cc 	str.w	r3, [r7, #204]	; 0xcc
 8001770:	e027      	b.n	80017c2 <change_digit_3+0x3d2>
 8001772:	bf00      	nop
 8001774:	080681dc 	.word	0x080681dc
 8001778:	20000020 	.word	0x20000020
 800177c:	08062824 	.word	0x08062824
 8001780:	08063718 	.word	0x08063718
 8001784:	080672e8 	.word	0x080672e8
				screen[4861+i*480+j] = none_picture_3[k++];
 8001788:	f8d7 2114 	ldr.w	r2, [r7, #276]	; 0x114
 800178c:	1c53      	adds	r3, r2, #1
 800178e:	f8c7 3114 	str.w	r3, [r7, #276]	; 0x114
 8001792:	f8d7 10d0 	ldr.w	r1, [r7, #208]	; 0xd0
 8001796:	460b      	mov	r3, r1
 8001798:	011b      	lsls	r3, r3, #4
 800179a:	1a5b      	subs	r3, r3, r1
 800179c:	015b      	lsls	r3, r3, #5
 800179e:	4619      	mov	r1, r3
 80017a0:	f241 23fd 	movw	r3, #4861	; 0x12fd
 80017a4:	440b      	add	r3, r1
 80017a6:	f8d7 10cc 	ldr.w	r1, [r7, #204]	; 0xcc
 80017aa:	440b      	add	r3, r1
 80017ac:	49cd      	ldr	r1, [pc, #820]	; (8001ae4 <change_digit_3+0x6f4>)
 80017ae:	f831 1012 	ldrh.w	r1, [r1, r2, lsl #1]
 80017b2:	4acd      	ldr	r2, [pc, #820]	; (8001ae8 <change_digit_3+0x6f8>)
 80017b4:	f822 1013 	strh.w	r1, [r2, r3, lsl #1]
			for(int j = 0; j <= 32; ++j)
 80017b8:	f8d7 30cc 	ldr.w	r3, [r7, #204]	; 0xcc
 80017bc:	3301      	adds	r3, #1
 80017be:	f8c7 30cc 	str.w	r3, [r7, #204]	; 0xcc
 80017c2:	f8d7 30cc 	ldr.w	r3, [r7, #204]	; 0xcc
 80017c6:	2b20      	cmp	r3, #32
 80017c8:	ddde      	ble.n	8001788 <change_digit_3+0x398>
		for(int i = 0; i <= 57; ++i)
 80017ca:	f8d7 30d0 	ldr.w	r3, [r7, #208]	; 0xd0
 80017ce:	3301      	adds	r3, #1
 80017d0:	f8c7 30d0 	str.w	r3, [r7, #208]	; 0xd0
 80017d4:	f8d7 30d0 	ldr.w	r3, [r7, #208]	; 0xd0
 80017d8:	2b39      	cmp	r3, #57	; 0x39
 80017da:	ddc6      	ble.n	800176a <change_digit_3+0x37a>
	}

	if(number==30)
 80017dc:	1d3b      	adds	r3, r7, #4
 80017de:	681b      	ldr	r3, [r3, #0]
 80017e0:	2b1e      	cmp	r3, #30
 80017e2:	f040 809c 	bne.w	800191e <change_digit_3+0x52e>
	{
		for(int i = 0; i <= 57; ++i)
 80017e6:	2300      	movs	r3, #0
 80017e8:	f8c7 30c8 	str.w	r3, [r7, #200]	; 0xc8
 80017ec:	e029      	b.n	8001842 <change_digit_3+0x452>
			for(int j = 0; j <= 32; ++j)
 80017ee:	2300      	movs	r3, #0
 80017f0:	f8c7 30c4 	str.w	r3, [r7, #196]	; 0xc4
 80017f4:	e01c      	b.n	8001830 <change_digit_3+0x440>
				screen[76+4861+i*480+j] = zero_picture_3[k++];
 80017f6:	f8d7 2114 	ldr.w	r2, [r7, #276]	; 0x114
 80017fa:	1c53      	adds	r3, r2, #1
 80017fc:	f8c7 3114 	str.w	r3, [r7, #276]	; 0x114
 8001800:	f8d7 10c8 	ldr.w	r1, [r7, #200]	; 0xc8
 8001804:	460b      	mov	r3, r1
 8001806:	011b      	lsls	r3, r3, #4
 8001808:	1a5b      	subs	r3, r3, r1
 800180a:	015b      	lsls	r3, r3, #5
 800180c:	4619      	mov	r1, r3
 800180e:	f241 3349 	movw	r3, #4937	; 0x1349
 8001812:	440b      	add	r3, r1
 8001814:	f8d7 10c4 	ldr.w	r1, [r7, #196]	; 0xc4
 8001818:	440b      	add	r3, r1
 800181a:	49b4      	ldr	r1, [pc, #720]	; (8001aec <change_digit_3+0x6fc>)
 800181c:	f831 1012 	ldrh.w	r1, [r1, r2, lsl #1]
 8001820:	4ab1      	ldr	r2, [pc, #708]	; (8001ae8 <change_digit_3+0x6f8>)
 8001822:	f822 1013 	strh.w	r1, [r2, r3, lsl #1]
			for(int j = 0; j <= 32; ++j)
 8001826:	f8d7 30c4 	ldr.w	r3, [r7, #196]	; 0xc4
 800182a:	3301      	adds	r3, #1
 800182c:	f8c7 30c4 	str.w	r3, [r7, #196]	; 0xc4
 8001830:	f8d7 30c4 	ldr.w	r3, [r7, #196]	; 0xc4
 8001834:	2b20      	cmp	r3, #32
 8001836:	ddde      	ble.n	80017f6 <change_digit_3+0x406>
		for(int i = 0; i <= 57; ++i)
 8001838:	f8d7 30c8 	ldr.w	r3, [r7, #200]	; 0xc8
 800183c:	3301      	adds	r3, #1
 800183e:	f8c7 30c8 	str.w	r3, [r7, #200]	; 0xc8
 8001842:	f8d7 30c8 	ldr.w	r3, [r7, #200]	; 0xc8
 8001846:	2b39      	cmp	r3, #57	; 0x39
 8001848:	ddd1      	ble.n	80017ee <change_digit_3+0x3fe>
		k = 0;
 800184a:	2300      	movs	r3, #0
 800184c:	f8c7 3114 	str.w	r3, [r7, #276]	; 0x114
		for(int i = 0; i <= 57; ++i)
 8001850:	2300      	movs	r3, #0
 8001852:	f8c7 30c0 	str.w	r3, [r7, #192]	; 0xc0
 8001856:	e029      	b.n	80018ac <change_digit_3+0x4bc>
			for(int j = 0; j <= 32; ++j)
 8001858:	2300      	movs	r3, #0
 800185a:	f8c7 30bc 	str.w	r3, [r7, #188]	; 0xbc
 800185e:	e01c      	b.n	800189a <change_digit_3+0x4aa>
				screen[38+4861+i*480+j] = three_picture_3[k++];
 8001860:	f8d7 2114 	ldr.w	r2, [r7, #276]	; 0x114
 8001864:	1c53      	adds	r3, r2, #1
 8001866:	f8c7 3114 	str.w	r3, [r7, #276]	; 0x114
 800186a:	f8d7 10c0 	ldr.w	r1, [r7, #192]	; 0xc0
 800186e:	460b      	mov	r3, r1
 8001870:	011b      	lsls	r3, r3, #4
 8001872:	1a5b      	subs	r3, r3, r1
 8001874:	015b      	lsls	r3, r3, #5
 8001876:	4619      	mov	r1, r3
 8001878:	f241 3323 	movw	r3, #4899	; 0x1323
 800187c:	440b      	add	r3, r1
 800187e:	f8d7 10bc 	ldr.w	r1, [r7, #188]	; 0xbc
 8001882:	440b      	add	r3, r1
 8001884:	499a      	ldr	r1, [pc, #616]	; (8001af0 <change_digit_3+0x700>)
 8001886:	f831 1012 	ldrh.w	r1, [r1, r2, lsl #1]
 800188a:	4a97      	ldr	r2, [pc, #604]	; (8001ae8 <change_digit_3+0x6f8>)
 800188c:	f822 1013 	strh.w	r1, [r2, r3, lsl #1]
			for(int j = 0; j <= 32; ++j)
 8001890:	f8d7 30bc 	ldr.w	r3, [r7, #188]	; 0xbc
 8001894:	3301      	adds	r3, #1
 8001896:	f8c7 30bc 	str.w	r3, [r7, #188]	; 0xbc
 800189a:	f8d7 30bc 	ldr.w	r3, [r7, #188]	; 0xbc
 800189e:	2b20      	cmp	r3, #32
 80018a0:	ddde      	ble.n	8001860 <change_digit_3+0x470>
		for(int i = 0; i <= 57; ++i)
 80018a2:	f8d7 30c0 	ldr.w	r3, [r7, #192]	; 0xc0
 80018a6:	3301      	adds	r3, #1
 80018a8:	f8c7 30c0 	str.w	r3, [r7, #192]	; 0xc0
 80018ac:	f8d7 30c0 	ldr.w	r3, [r7, #192]	; 0xc0
 80018b0:	2b39      	cmp	r3, #57	; 0x39
 80018b2:	ddd1      	ble.n	8001858 <change_digit_3+0x468>
		k = 0;
 80018b4:	2300      	movs	r3, #0
 80018b6:	f8c7 3114 	str.w	r3, [r7, #276]	; 0x114
		for(int i = 0; i <= 57; ++i)
 80018ba:	2300      	movs	r3, #0
 80018bc:	f8c7 30b8 	str.w	r3, [r7, #184]	; 0xb8
 80018c0:	e029      	b.n	8001916 <change_digit_3+0x526>
			for(int j = 0; j <= 32; ++j)
 80018c2:	2300      	movs	r3, #0
 80018c4:	f8c7 30b4 	str.w	r3, [r7, #180]	; 0xb4
 80018c8:	e01c      	b.n	8001904 <change_digit_3+0x514>
				screen[4861+i*480+j] = none_picture_3[k++];
 80018ca:	f8d7 2114 	ldr.w	r2, [r7, #276]	; 0x114
 80018ce:	1c53      	adds	r3, r2, #1
 80018d0:	f8c7 3114 	str.w	r3, [r7, #276]	; 0x114
 80018d4:	f8d7 10b8 	ldr.w	r1, [r7, #184]	; 0xb8
 80018d8:	460b      	mov	r3, r1
 80018da:	011b      	lsls	r3, r3, #4
 80018dc:	1a5b      	subs	r3, r3, r1
 80018de:	015b      	lsls	r3, r3, #5
 80018e0:	4619      	mov	r1, r3
 80018e2:	f241 23fd 	movw	r3, #4861	; 0x12fd
 80018e6:	440b      	add	r3, r1
 80018e8:	f8d7 10b4 	ldr.w	r1, [r7, #180]	; 0xb4
 80018ec:	440b      	add	r3, r1
 80018ee:	497d      	ldr	r1, [pc, #500]	; (8001ae4 <change_digit_3+0x6f4>)
 80018f0:	f831 1012 	ldrh.w	r1, [r1, r2, lsl #1]
 80018f4:	4a7c      	ldr	r2, [pc, #496]	; (8001ae8 <change_digit_3+0x6f8>)
 80018f6:	f822 1013 	strh.w	r1, [r2, r3, lsl #1]
			for(int j = 0; j <= 32; ++j)
 80018fa:	f8d7 30b4 	ldr.w	r3, [r7, #180]	; 0xb4
 80018fe:	3301      	adds	r3, #1
 8001900:	f8c7 30b4 	str.w	r3, [r7, #180]	; 0xb4
 8001904:	f8d7 30b4 	ldr.w	r3, [r7, #180]	; 0xb4
 8001908:	2b20      	cmp	r3, #32
 800190a:	ddde      	ble.n	80018ca <change_digit_3+0x4da>
		for(int i = 0; i <= 57; ++i)
 800190c:	f8d7 30b8 	ldr.w	r3, [r7, #184]	; 0xb8
 8001910:	3301      	adds	r3, #1
 8001912:	f8c7 30b8 	str.w	r3, [r7, #184]	; 0xb8
 8001916:	f8d7 30b8 	ldr.w	r3, [r7, #184]	; 0xb8
 800191a:	2b39      	cmp	r3, #57	; 0x39
 800191c:	ddd1      	ble.n	80018c2 <change_digit_3+0x4d2>
	}

	if(number==40)
 800191e:	1d3b      	adds	r3, r7, #4
 8001920:	681b      	ldr	r3, [r3, #0]
 8001922:	2b28      	cmp	r3, #40	; 0x28
 8001924:	f040 809c 	bne.w	8001a60 <change_digit_3+0x670>
	{
		for(int i = 0; i <= 57; ++i)
 8001928:	2300      	movs	r3, #0
 800192a:	f8c7 30b0 	str.w	r3, [r7, #176]	; 0xb0
 800192e:	e029      	b.n	8001984 <change_digit_3+0x594>
			for(int j = 0; j <= 32; ++j)
 8001930:	2300      	movs	r3, #0
 8001932:	f8c7 30ac 	str.w	r3, [r7, #172]	; 0xac
 8001936:	e01c      	b.n	8001972 <change_digit_3+0x582>
				screen[76+4861+i*480+j] = zero_picture_3[k++];
 8001938:	f8d7 2114 	ldr.w	r2, [r7, #276]	; 0x114
 800193c:	1c53      	adds	r3, r2, #1
 800193e:	f8c7 3114 	str.w	r3, [r7, #276]	; 0x114
 8001942:	f8d7 10b0 	ldr.w	r1, [r7, #176]	; 0xb0
 8001946:	460b      	mov	r3, r1
 8001948:	011b      	lsls	r3, r3, #4
 800194a:	1a5b      	subs	r3, r3, r1
 800194c:	015b      	lsls	r3, r3, #5
 800194e:	4619      	mov	r1, r3
 8001950:	f241 3349 	movw	r3, #4937	; 0x1349
 8001954:	440b      	add	r3, r1
 8001956:	f8d7 10ac 	ldr.w	r1, [r7, #172]	; 0xac
 800195a:	440b      	add	r3, r1
 800195c:	4963      	ldr	r1, [pc, #396]	; (8001aec <change_digit_3+0x6fc>)
 800195e:	f831 1012 	ldrh.w	r1, [r1, r2, lsl #1]
 8001962:	4a61      	ldr	r2, [pc, #388]	; (8001ae8 <change_digit_3+0x6f8>)
 8001964:	f822 1013 	strh.w	r1, [r2, r3, lsl #1]
			for(int j = 0; j <= 32; ++j)
 8001968:	f8d7 30ac 	ldr.w	r3, [r7, #172]	; 0xac
 800196c:	3301      	adds	r3, #1
 800196e:	f8c7 30ac 	str.w	r3, [r7, #172]	; 0xac
 8001972:	f8d7 30ac 	ldr.w	r3, [r7, #172]	; 0xac
 8001976:	2b20      	cmp	r3, #32
 8001978:	ddde      	ble.n	8001938 <change_digit_3+0x548>
		for(int i = 0; i <= 57; ++i)
 800197a:	f8d7 30b0 	ldr.w	r3, [r7, #176]	; 0xb0
 800197e:	3301      	adds	r3, #1
 8001980:	f8c7 30b0 	str.w	r3, [r7, #176]	; 0xb0
 8001984:	f8d7 30b0 	ldr.w	r3, [r7, #176]	; 0xb0
 8001988:	2b39      	cmp	r3, #57	; 0x39
 800198a:	ddd1      	ble.n	8001930 <change_digit_3+0x540>
		k = 0;
 800198c:	2300      	movs	r3, #0
 800198e:	f8c7 3114 	str.w	r3, [r7, #276]	; 0x114
		for(int i = 0; i <= 57; ++i)
 8001992:	2300      	movs	r3, #0
 8001994:	f8c7 30a8 	str.w	r3, [r7, #168]	; 0xa8
 8001998:	e029      	b.n	80019ee <change_digit_3+0x5fe>
			for(int j = 0; j <= 32; ++j)
 800199a:	2300      	movs	r3, #0
 800199c:	f8c7 30a4 	str.w	r3, [r7, #164]	; 0xa4
 80019a0:	e01c      	b.n	80019dc <change_digit_3+0x5ec>
				screen[38+4861+i*480+j] = four_picture_3[k++];
 80019a2:	f8d7 2114 	ldr.w	r2, [r7, #276]	; 0x114
 80019a6:	1c53      	adds	r3, r2, #1
 80019a8:	f8c7 3114 	str.w	r3, [r7, #276]	; 0x114
 80019ac:	f8d7 10a8 	ldr.w	r1, [r7, #168]	; 0xa8
 80019b0:	460b      	mov	r3, r1
 80019b2:	011b      	lsls	r3, r3, #4
 80019b4:	1a5b      	subs	r3, r3, r1
 80019b6:	015b      	lsls	r3, r3, #5
 80019b8:	4619      	mov	r1, r3
 80019ba:	f241 3323 	movw	r3, #4899	; 0x1323
 80019be:	440b      	add	r3, r1
 80019c0:	f8d7 10a4 	ldr.w	r1, [r7, #164]	; 0xa4
 80019c4:	440b      	add	r3, r1
 80019c6:	494b      	ldr	r1, [pc, #300]	; (8001af4 <change_digit_3+0x704>)
 80019c8:	f831 1012 	ldrh.w	r1, [r1, r2, lsl #1]
 80019cc:	4a46      	ldr	r2, [pc, #280]	; (8001ae8 <change_digit_3+0x6f8>)
 80019ce:	f822 1013 	strh.w	r1, [r2, r3, lsl #1]
			for(int j = 0; j <= 32; ++j)
 80019d2:	f8d7 30a4 	ldr.w	r3, [r7, #164]	; 0xa4
 80019d6:	3301      	adds	r3, #1
 80019d8:	f8c7 30a4 	str.w	r3, [r7, #164]	; 0xa4
 80019dc:	f8d7 30a4 	ldr.w	r3, [r7, #164]	; 0xa4
 80019e0:	2b20      	cmp	r3, #32
 80019e2:	ddde      	ble.n	80019a2 <change_digit_3+0x5b2>
		for(int i = 0; i <= 57; ++i)
 80019e4:	f8d7 30a8 	ldr.w	r3, [r7, #168]	; 0xa8
 80019e8:	3301      	adds	r3, #1
 80019ea:	f8c7 30a8 	str.w	r3, [r7, #168]	; 0xa8
 80019ee:	f8d7 30a8 	ldr.w	r3, [r7, #168]	; 0xa8
 80019f2:	2b39      	cmp	r3, #57	; 0x39
 80019f4:	ddd1      	ble.n	800199a <change_digit_3+0x5aa>
		k = 0;
 80019f6:	2300      	movs	r3, #0
 80019f8:	f8c7 3114 	str.w	r3, [r7, #276]	; 0x114
		for(int i = 0; i <= 57; ++i)
 80019fc:	2300      	movs	r3, #0
 80019fe:	f8c7 30a0 	str.w	r3, [r7, #160]	; 0xa0
 8001a02:	e029      	b.n	8001a58 <change_digit_3+0x668>
			for(int j = 0; j <= 32; ++j)
 8001a04:	2300      	movs	r3, #0
 8001a06:	f8c7 309c 	str.w	r3, [r7, #156]	; 0x9c
 8001a0a:	e01c      	b.n	8001a46 <change_digit_3+0x656>
				screen[4861+i*480+j] = none_picture_3[k++];
 8001a0c:	f8d7 2114 	ldr.w	r2, [r7, #276]	; 0x114
 8001a10:	1c53      	adds	r3, r2, #1
 8001a12:	f8c7 3114 	str.w	r3, [r7, #276]	; 0x114
 8001a16:	f8d7 10a0 	ldr.w	r1, [r7, #160]	; 0xa0
 8001a1a:	460b      	mov	r3, r1
 8001a1c:	011b      	lsls	r3, r3, #4
 8001a1e:	1a5b      	subs	r3, r3, r1
 8001a20:	015b      	lsls	r3, r3, #5
 8001a22:	4619      	mov	r1, r3
 8001a24:	f241 23fd 	movw	r3, #4861	; 0x12fd
 8001a28:	440b      	add	r3, r1
 8001a2a:	f8d7 109c 	ldr.w	r1, [r7, #156]	; 0x9c
 8001a2e:	440b      	add	r3, r1
 8001a30:	492c      	ldr	r1, [pc, #176]	; (8001ae4 <change_digit_3+0x6f4>)
 8001a32:	f831 1012 	ldrh.w	r1, [r1, r2, lsl #1]
 8001a36:	4a2c      	ldr	r2, [pc, #176]	; (8001ae8 <change_digit_3+0x6f8>)
 8001a38:	f822 1013 	strh.w	r1, [r2, r3, lsl #1]
			for(int j = 0; j <= 32; ++j)
 8001a3c:	f8d7 309c 	ldr.w	r3, [r7, #156]	; 0x9c
 8001a40:	3301      	adds	r3, #1
 8001a42:	f8c7 309c 	str.w	r3, [r7, #156]	; 0x9c
 8001a46:	f8d7 309c 	ldr.w	r3, [r7, #156]	; 0x9c
 8001a4a:	2b20      	cmp	r3, #32
 8001a4c:	ddde      	ble.n	8001a0c <change_digit_3+0x61c>
		for(int i = 0; i <= 57; ++i)
 8001a4e:	f8d7 30a0 	ldr.w	r3, [r7, #160]	; 0xa0
 8001a52:	3301      	adds	r3, #1
 8001a54:	f8c7 30a0 	str.w	r3, [r7, #160]	; 0xa0
 8001a58:	f8d7 30a0 	ldr.w	r3, [r7, #160]	; 0xa0
 8001a5c:	2b39      	cmp	r3, #57	; 0x39
 8001a5e:	ddd1      	ble.n	8001a04 <change_digit_3+0x614>
	}

	if(number==50)
 8001a60:	1d3b      	adds	r3, r7, #4
 8001a62:	681b      	ldr	r3, [r3, #0]
 8001a64:	2b32      	cmp	r3, #50	; 0x32
 8001a66:	f040 80a6 	bne.w	8001bb6 <change_digit_3+0x7c6>
	{
		for(int i = 0; i <= 57; ++i)
 8001a6a:	2300      	movs	r3, #0
 8001a6c:	f8c7 3098 	str.w	r3, [r7, #152]	; 0x98
 8001a70:	e029      	b.n	8001ac6 <change_digit_3+0x6d6>
			for(int j = 0; j <= 32; ++j)
 8001a72:	2300      	movs	r3, #0
 8001a74:	f8c7 3094 	str.w	r3, [r7, #148]	; 0x94
 8001a78:	e01c      	b.n	8001ab4 <change_digit_3+0x6c4>
				screen[76+4861+i*480+j] = zero_picture_3[k++];
 8001a7a:	f8d7 2114 	ldr.w	r2, [r7, #276]	; 0x114
 8001a7e:	1c53      	adds	r3, r2, #1
 8001a80:	f8c7 3114 	str.w	r3, [r7, #276]	; 0x114
 8001a84:	f8d7 1098 	ldr.w	r1, [r7, #152]	; 0x98
 8001a88:	460b      	mov	r3, r1
 8001a8a:	011b      	lsls	r3, r3, #4
 8001a8c:	1a5b      	subs	r3, r3, r1
 8001a8e:	015b      	lsls	r3, r3, #5
 8001a90:	4619      	mov	r1, r3
 8001a92:	f241 3349 	movw	r3, #4937	; 0x1349
 8001a96:	440b      	add	r3, r1
 8001a98:	f8d7 1094 	ldr.w	r1, [r7, #148]	; 0x94
 8001a9c:	440b      	add	r3, r1
 8001a9e:	4913      	ldr	r1, [pc, #76]	; (8001aec <change_digit_3+0x6fc>)
 8001aa0:	f831 1012 	ldrh.w	r1, [r1, r2, lsl #1]
 8001aa4:	4a10      	ldr	r2, [pc, #64]	; (8001ae8 <change_digit_3+0x6f8>)
 8001aa6:	f822 1013 	strh.w	r1, [r2, r3, lsl #1]
			for(int j = 0; j <= 32; ++j)
 8001aaa:	f8d7 3094 	ldr.w	r3, [r7, #148]	; 0x94
 8001aae:	3301      	adds	r3, #1
 8001ab0:	f8c7 3094 	str.w	r3, [r7, #148]	; 0x94
 8001ab4:	f8d7 3094 	ldr.w	r3, [r7, #148]	; 0x94
 8001ab8:	2b20      	cmp	r3, #32
 8001aba:	ddde      	ble.n	8001a7a <change_digit_3+0x68a>
		for(int i = 0; i <= 57; ++i)
 8001abc:	f8d7 3098 	ldr.w	r3, [r7, #152]	; 0x98
 8001ac0:	3301      	adds	r3, #1
 8001ac2:	f8c7 3098 	str.w	r3, [r7, #152]	; 0x98
 8001ac6:	f8d7 3098 	ldr.w	r3, [r7, #152]	; 0x98
 8001aca:	2b39      	cmp	r3, #57	; 0x39
 8001acc:	ddd1      	ble.n	8001a72 <change_digit_3+0x682>
		k = 0;
 8001ace:	2300      	movs	r3, #0
 8001ad0:	f8c7 3114 	str.w	r3, [r7, #276]	; 0x114
		for(int i = 0; i <= 57; ++i)
 8001ad4:	2300      	movs	r3, #0
 8001ad6:	f8c7 3090 	str.w	r3, [r7, #144]	; 0x90
 8001ada:	e033      	b.n	8001b44 <change_digit_3+0x754>
			for(int j = 0; j <= 32; ++j)
 8001adc:	2300      	movs	r3, #0
 8001ade:	f8c7 308c 	str.w	r3, [r7, #140]	; 0x8c
 8001ae2:	e026      	b.n	8001b32 <change_digit_3+0x742>
 8001ae4:	08062824 	.word	0x08062824
 8001ae8:	20000020 	.word	0x20000020
 8001aec:	080681dc 	.word	0x080681dc
 8001af0:	080663f4 	.word	0x080663f4
 8001af4:	08060a3c 	.word	0x08060a3c
				screen[38+4861+i*480+j] = five_picture_3[k++];
 8001af8:	f8d7 2114 	ldr.w	r2, [r7, #276]	; 0x114
 8001afc:	1c53      	adds	r3, r2, #1
 8001afe:	f8c7 3114 	str.w	r3, [r7, #276]	; 0x114
 8001b02:	f8d7 1090 	ldr.w	r1, [r7, #144]	; 0x90
 8001b06:	460b      	mov	r3, r1
 8001b08:	011b      	lsls	r3, r3, #4
 8001b0a:	1a5b      	subs	r3, r3, r1
 8001b0c:	015b      	lsls	r3, r3, #5
 8001b0e:	4619      	mov	r1, r3
 8001b10:	f241 3323 	movw	r3, #4899	; 0x1323
 8001b14:	440b      	add	r3, r1
 8001b16:	f8d7 108c 	ldr.w	r1, [r7, #140]	; 0x8c
 8001b1a:	440b      	add	r3, r1
 8001b1c:	49b0      	ldr	r1, [pc, #704]	; (8001de0 <change_digit_3+0x9f0>)
 8001b1e:	f831 1012 	ldrh.w	r1, [r1, r2, lsl #1]
 8001b22:	4ab0      	ldr	r2, [pc, #704]	; (8001de4 <change_digit_3+0x9f4>)
 8001b24:	f822 1013 	strh.w	r1, [r2, r3, lsl #1]
			for(int j = 0; j <= 32; ++j)
 8001b28:	f8d7 308c 	ldr.w	r3, [r7, #140]	; 0x8c
 8001b2c:	3301      	adds	r3, #1
 8001b2e:	f8c7 308c 	str.w	r3, [r7, #140]	; 0x8c
 8001b32:	f8d7 308c 	ldr.w	r3, [r7, #140]	; 0x8c
 8001b36:	2b20      	cmp	r3, #32
 8001b38:	ddde      	ble.n	8001af8 <change_digit_3+0x708>
		for(int i = 0; i <= 57; ++i)
 8001b3a:	f8d7 3090 	ldr.w	r3, [r7, #144]	; 0x90
 8001b3e:	3301      	adds	r3, #1
 8001b40:	f8c7 3090 	str.w	r3, [r7, #144]	; 0x90
 8001b44:	f8d7 3090 	ldr.w	r3, [r7, #144]	; 0x90
 8001b48:	2b39      	cmp	r3, #57	; 0x39
 8001b4a:	ddc7      	ble.n	8001adc <change_digit_3+0x6ec>
		k = 0;
 8001b4c:	2300      	movs	r3, #0
 8001b4e:	f8c7 3114 	str.w	r3, [r7, #276]	; 0x114
		for(int i = 0; i <= 57; ++i)
 8001b52:	2300      	movs	r3, #0
 8001b54:	f8c7 3088 	str.w	r3, [r7, #136]	; 0x88
 8001b58:	e029      	b.n	8001bae <change_digit_3+0x7be>
			for(int j = 0; j <= 32; ++j)
 8001b5a:	2300      	movs	r3, #0
 8001b5c:	f8c7 3084 	str.w	r3, [r7, #132]	; 0x84
 8001b60:	e01c      	b.n	8001b9c <change_digit_3+0x7ac>
				screen[4861+i*480+j] = none_picture_3[k++];
 8001b62:	f8d7 2114 	ldr.w	r2, [r7, #276]	; 0x114
 8001b66:	1c53      	adds	r3, r2, #1
 8001b68:	f8c7 3114 	str.w	r3, [r7, #276]	; 0x114
 8001b6c:	f8d7 1088 	ldr.w	r1, [r7, #136]	; 0x88
 8001b70:	460b      	mov	r3, r1
 8001b72:	011b      	lsls	r3, r3, #4
 8001b74:	1a5b      	subs	r3, r3, r1
 8001b76:	015b      	lsls	r3, r3, #5
 8001b78:	4619      	mov	r1, r3
 8001b7a:	f241 23fd 	movw	r3, #4861	; 0x12fd
 8001b7e:	440b      	add	r3, r1
 8001b80:	f8d7 1084 	ldr.w	r1, [r7, #132]	; 0x84
 8001b84:	440b      	add	r3, r1
 8001b86:	4998      	ldr	r1, [pc, #608]	; (8001de8 <change_digit_3+0x9f8>)
 8001b88:	f831 1012 	ldrh.w	r1, [r1, r2, lsl #1]
 8001b8c:	4a95      	ldr	r2, [pc, #596]	; (8001de4 <change_digit_3+0x9f4>)
 8001b8e:	f822 1013 	strh.w	r1, [r2, r3, lsl #1]
			for(int j = 0; j <= 32; ++j)
 8001b92:	f8d7 3084 	ldr.w	r3, [r7, #132]	; 0x84
 8001b96:	3301      	adds	r3, #1
 8001b98:	f8c7 3084 	str.w	r3, [r7, #132]	; 0x84
 8001b9c:	f8d7 3084 	ldr.w	r3, [r7, #132]	; 0x84
 8001ba0:	2b20      	cmp	r3, #32
 8001ba2:	ddde      	ble.n	8001b62 <change_digit_3+0x772>
		for(int i = 0; i <= 57; ++i)
 8001ba4:	f8d7 3088 	ldr.w	r3, [r7, #136]	; 0x88
 8001ba8:	3301      	adds	r3, #1
 8001baa:	f8c7 3088 	str.w	r3, [r7, #136]	; 0x88
 8001bae:	f8d7 3088 	ldr.w	r3, [r7, #136]	; 0x88
 8001bb2:	2b39      	cmp	r3, #57	; 0x39
 8001bb4:	ddd1      	ble.n	8001b5a <change_digit_3+0x76a>
	}

	if(number==60)
 8001bb6:	1d3b      	adds	r3, r7, #4
 8001bb8:	681b      	ldr	r3, [r3, #0]
 8001bba:	2b3c      	cmp	r3, #60	; 0x3c
 8001bbc:	f040 8083 	bne.w	8001cc6 <change_digit_3+0x8d6>
	{
		for(int i = 0; i <= 57; ++i)
 8001bc0:	2300      	movs	r3, #0
 8001bc2:	f8c7 3080 	str.w	r3, [r7, #128]	; 0x80
 8001bc6:	e024      	b.n	8001c12 <change_digit_3+0x822>
			for(int j = 0; j <= 32; ++j)
 8001bc8:	2300      	movs	r3, #0
 8001bca:	67fb      	str	r3, [r7, #124]	; 0x7c
 8001bcc:	e019      	b.n	8001c02 <change_digit_3+0x812>
				screen[76+4861+i*480+j] = zero_picture_3[k++];
 8001bce:	f8d7 2114 	ldr.w	r2, [r7, #276]	; 0x114
 8001bd2:	1c53      	adds	r3, r2, #1
 8001bd4:	f8c7 3114 	str.w	r3, [r7, #276]	; 0x114
 8001bd8:	f8d7 1080 	ldr.w	r1, [r7, #128]	; 0x80
 8001bdc:	460b      	mov	r3, r1
 8001bde:	011b      	lsls	r3, r3, #4
 8001be0:	1a5b      	subs	r3, r3, r1
 8001be2:	015b      	lsls	r3, r3, #5
 8001be4:	4619      	mov	r1, r3
 8001be6:	f241 3349 	movw	r3, #4937	; 0x1349
 8001bea:	440b      	add	r3, r1
 8001bec:	6ff9      	ldr	r1, [r7, #124]	; 0x7c
 8001bee:	440b      	add	r3, r1
 8001bf0:	497e      	ldr	r1, [pc, #504]	; (8001dec <change_digit_3+0x9fc>)
 8001bf2:	f831 1012 	ldrh.w	r1, [r1, r2, lsl #1]
 8001bf6:	4a7b      	ldr	r2, [pc, #492]	; (8001de4 <change_digit_3+0x9f4>)
 8001bf8:	f822 1013 	strh.w	r1, [r2, r3, lsl #1]
			for(int j = 0; j <= 32; ++j)
 8001bfc:	6ffb      	ldr	r3, [r7, #124]	; 0x7c
 8001bfe:	3301      	adds	r3, #1
 8001c00:	67fb      	str	r3, [r7, #124]	; 0x7c
 8001c02:	6ffb      	ldr	r3, [r7, #124]	; 0x7c
 8001c04:	2b20      	cmp	r3, #32
 8001c06:	dde2      	ble.n	8001bce <change_digit_3+0x7de>
		for(int i = 0; i <= 57; ++i)
 8001c08:	f8d7 3080 	ldr.w	r3, [r7, #128]	; 0x80
 8001c0c:	3301      	adds	r3, #1
 8001c0e:	f8c7 3080 	str.w	r3, [r7, #128]	; 0x80
 8001c12:	f8d7 3080 	ldr.w	r3, [r7, #128]	; 0x80
 8001c16:	2b39      	cmp	r3, #57	; 0x39
 8001c18:	ddd6      	ble.n	8001bc8 <change_digit_3+0x7d8>
		k = 0;
 8001c1a:	2300      	movs	r3, #0
 8001c1c:	f8c7 3114 	str.w	r3, [r7, #276]	; 0x114
		for(int i = 0; i <= 57; ++i)
 8001c20:	2300      	movs	r3, #0
 8001c22:	67bb      	str	r3, [r7, #120]	; 0x78
 8001c24:	e021      	b.n	8001c6a <change_digit_3+0x87a>
			for(int j = 0; j <= 32; ++j)
 8001c26:	2300      	movs	r3, #0
 8001c28:	677b      	str	r3, [r7, #116]	; 0x74
 8001c2a:	e018      	b.n	8001c5e <change_digit_3+0x86e>
				screen[38+4861+i*480+j] = six_picture_3[k++];
 8001c2c:	f8d7 2114 	ldr.w	r2, [r7, #276]	; 0x114
 8001c30:	1c53      	adds	r3, r2, #1
 8001c32:	f8c7 3114 	str.w	r3, [r7, #276]	; 0x114
 8001c36:	6fb9      	ldr	r1, [r7, #120]	; 0x78
 8001c38:	460b      	mov	r3, r1
 8001c3a:	011b      	lsls	r3, r3, #4
 8001c3c:	1a5b      	subs	r3, r3, r1
 8001c3e:	015b      	lsls	r3, r3, #5
 8001c40:	4619      	mov	r1, r3
 8001c42:	f241 3323 	movw	r3, #4899	; 0x1323
 8001c46:	440b      	add	r3, r1
 8001c48:	6f79      	ldr	r1, [r7, #116]	; 0x74
 8001c4a:	440b      	add	r3, r1
 8001c4c:	4968      	ldr	r1, [pc, #416]	; (8001df0 <change_digit_3+0xa00>)
 8001c4e:	f831 1012 	ldrh.w	r1, [r1, r2, lsl #1]
 8001c52:	4a64      	ldr	r2, [pc, #400]	; (8001de4 <change_digit_3+0x9f4>)
 8001c54:	f822 1013 	strh.w	r1, [r2, r3, lsl #1]
			for(int j = 0; j <= 32; ++j)
 8001c58:	6f7b      	ldr	r3, [r7, #116]	; 0x74
 8001c5a:	3301      	adds	r3, #1
 8001c5c:	677b      	str	r3, [r7, #116]	; 0x74
 8001c5e:	6f7b      	ldr	r3, [r7, #116]	; 0x74
 8001c60:	2b20      	cmp	r3, #32
 8001c62:	dde3      	ble.n	8001c2c <change_digit_3+0x83c>
		for(int i = 0; i <= 57; ++i)
 8001c64:	6fbb      	ldr	r3, [r7, #120]	; 0x78
 8001c66:	3301      	adds	r3, #1
 8001c68:	67bb      	str	r3, [r7, #120]	; 0x78
 8001c6a:	6fbb      	ldr	r3, [r7, #120]	; 0x78
 8001c6c:	2b39      	cmp	r3, #57	; 0x39
 8001c6e:	ddda      	ble.n	8001c26 <change_digit_3+0x836>
		k = 0;
 8001c70:	2300      	movs	r3, #0
 8001c72:	f8c7 3114 	str.w	r3, [r7, #276]	; 0x114
		for(int i = 0; i <= 57; ++i)
 8001c76:	2300      	movs	r3, #0
 8001c78:	673b      	str	r3, [r7, #112]	; 0x70
 8001c7a:	e021      	b.n	8001cc0 <change_digit_3+0x8d0>
			for(int j = 0; j <= 32; ++j)
 8001c7c:	2300      	movs	r3, #0
 8001c7e:	66fb      	str	r3, [r7, #108]	; 0x6c
 8001c80:	e018      	b.n	8001cb4 <change_digit_3+0x8c4>
				screen[4861+i*480+j] = none_picture_3[k++];
 8001c82:	f8d7 2114 	ldr.w	r2, [r7, #276]	; 0x114
 8001c86:	1c53      	adds	r3, r2, #1
 8001c88:	f8c7 3114 	str.w	r3, [r7, #276]	; 0x114
 8001c8c:	6f39      	ldr	r1, [r7, #112]	; 0x70
 8001c8e:	460b      	mov	r3, r1
 8001c90:	011b      	lsls	r3, r3, #4
 8001c92:	1a5b      	subs	r3, r3, r1
 8001c94:	015b      	lsls	r3, r3, #5
 8001c96:	4619      	mov	r1, r3
 8001c98:	f241 23fd 	movw	r3, #4861	; 0x12fd
 8001c9c:	440b      	add	r3, r1
 8001c9e:	6ef9      	ldr	r1, [r7, #108]	; 0x6c
 8001ca0:	440b      	add	r3, r1
 8001ca2:	4951      	ldr	r1, [pc, #324]	; (8001de8 <change_digit_3+0x9f8>)
 8001ca4:	f831 1012 	ldrh.w	r1, [r1, r2, lsl #1]
 8001ca8:	4a4e      	ldr	r2, [pc, #312]	; (8001de4 <change_digit_3+0x9f4>)
 8001caa:	f822 1013 	strh.w	r1, [r2, r3, lsl #1]
			for(int j = 0; j <= 32; ++j)
 8001cae:	6efb      	ldr	r3, [r7, #108]	; 0x6c
 8001cb0:	3301      	adds	r3, #1
 8001cb2:	66fb      	str	r3, [r7, #108]	; 0x6c
 8001cb4:	6efb      	ldr	r3, [r7, #108]	; 0x6c
 8001cb6:	2b20      	cmp	r3, #32
 8001cb8:	dde3      	ble.n	8001c82 <change_digit_3+0x892>
		for(int i = 0; i <= 57; ++i)
 8001cba:	6f3b      	ldr	r3, [r7, #112]	; 0x70
 8001cbc:	3301      	adds	r3, #1
 8001cbe:	673b      	str	r3, [r7, #112]	; 0x70
 8001cc0:	6f3b      	ldr	r3, [r7, #112]	; 0x70
 8001cc2:	2b39      	cmp	r3, #57	; 0x39
 8001cc4:	ddda      	ble.n	8001c7c <change_digit_3+0x88c>
	}

	if(number==70)
 8001cc6:	1d3b      	adds	r3, r7, #4
 8001cc8:	681b      	ldr	r3, [r3, #0]
 8001cca:	2b46      	cmp	r3, #70	; 0x46
 8001ccc:	d17d      	bne.n	8001dca <change_digit_3+0x9da>
	{
		for(int i = 0; i <= 57; ++i)
 8001cce:	2300      	movs	r3, #0
 8001cd0:	66bb      	str	r3, [r7, #104]	; 0x68
 8001cd2:	e021      	b.n	8001d18 <change_digit_3+0x928>
			for(int j = 0; j <= 32; ++j)
 8001cd4:	2300      	movs	r3, #0
 8001cd6:	667b      	str	r3, [r7, #100]	; 0x64
 8001cd8:	e018      	b.n	8001d0c <change_digit_3+0x91c>
				screen[76+4861+i*480+j] = zero_picture_3[k++];
 8001cda:	f8d7 2114 	ldr.w	r2, [r7, #276]	; 0x114
 8001cde:	1c53      	adds	r3, r2, #1
 8001ce0:	f8c7 3114 	str.w	r3, [r7, #276]	; 0x114
 8001ce4:	6eb9      	ldr	r1, [r7, #104]	; 0x68
 8001ce6:	460b      	mov	r3, r1
 8001ce8:	011b      	lsls	r3, r3, #4
 8001cea:	1a5b      	subs	r3, r3, r1
 8001cec:	015b      	lsls	r3, r3, #5
 8001cee:	4619      	mov	r1, r3
 8001cf0:	f241 3349 	movw	r3, #4937	; 0x1349
 8001cf4:	440b      	add	r3, r1
 8001cf6:	6e79      	ldr	r1, [r7, #100]	; 0x64
 8001cf8:	440b      	add	r3, r1
 8001cfa:	493c      	ldr	r1, [pc, #240]	; (8001dec <change_digit_3+0x9fc>)
 8001cfc:	f831 1012 	ldrh.w	r1, [r1, r2, lsl #1]
 8001d00:	4a38      	ldr	r2, [pc, #224]	; (8001de4 <change_digit_3+0x9f4>)
 8001d02:	f822 1013 	strh.w	r1, [r2, r3, lsl #1]
			for(int j = 0; j <= 32; ++j)
 8001d06:	6e7b      	ldr	r3, [r7, #100]	; 0x64
 8001d08:	3301      	adds	r3, #1
 8001d0a:	667b      	str	r3, [r7, #100]	; 0x64
 8001d0c:	6e7b      	ldr	r3, [r7, #100]	; 0x64
 8001d0e:	2b20      	cmp	r3, #32
 8001d10:	dde3      	ble.n	8001cda <change_digit_3+0x8ea>
		for(int i = 0; i <= 57; ++i)
 8001d12:	6ebb      	ldr	r3, [r7, #104]	; 0x68
 8001d14:	3301      	adds	r3, #1
 8001d16:	66bb      	str	r3, [r7, #104]	; 0x68
 8001d18:	6ebb      	ldr	r3, [r7, #104]	; 0x68
 8001d1a:	2b39      	cmp	r3, #57	; 0x39
 8001d1c:	ddda      	ble.n	8001cd4 <change_digit_3+0x8e4>
		k = 0;
 8001d1e:	2300      	movs	r3, #0
 8001d20:	f8c7 3114 	str.w	r3, [r7, #276]	; 0x114
		for(int i = 0; i <= 57; ++i)
 8001d24:	2300      	movs	r3, #0
 8001d26:	663b      	str	r3, [r7, #96]	; 0x60
 8001d28:	e021      	b.n	8001d6e <change_digit_3+0x97e>
			for(int j = 0; j <= 32; ++j)
 8001d2a:	2300      	movs	r3, #0
 8001d2c:	65fb      	str	r3, [r7, #92]	; 0x5c
 8001d2e:	e018      	b.n	8001d62 <change_digit_3+0x972>
				screen[38+4861+i*480+j] = seven_picture_3[k++];
 8001d30:	f8d7 2114 	ldr.w	r2, [r7, #276]	; 0x114
 8001d34:	1c53      	adds	r3, r2, #1
 8001d36:	f8c7 3114 	str.w	r3, [r7, #276]	; 0x114
 8001d3a:	6e39      	ldr	r1, [r7, #96]	; 0x60
 8001d3c:	460b      	mov	r3, r1
 8001d3e:	011b      	lsls	r3, r3, #4
 8001d40:	1a5b      	subs	r3, r3, r1
 8001d42:	015b      	lsls	r3, r3, #5
 8001d44:	4619      	mov	r1, r3
 8001d46:	f241 3323 	movw	r3, #4899	; 0x1323
 8001d4a:	440b      	add	r3, r1
 8001d4c:	6df9      	ldr	r1, [r7, #92]	; 0x5c
 8001d4e:	440b      	add	r3, r1
 8001d50:	4928      	ldr	r1, [pc, #160]	; (8001df4 <change_digit_3+0xa04>)
 8001d52:	f831 1012 	ldrh.w	r1, [r1, r2, lsl #1]
 8001d56:	4a23      	ldr	r2, [pc, #140]	; (8001de4 <change_digit_3+0x9f4>)
 8001d58:	f822 1013 	strh.w	r1, [r2, r3, lsl #1]
			for(int j = 0; j <= 32; ++j)
 8001d5c:	6dfb      	ldr	r3, [r7, #92]	; 0x5c
 8001d5e:	3301      	adds	r3, #1
 8001d60:	65fb      	str	r3, [r7, #92]	; 0x5c
 8001d62:	6dfb      	ldr	r3, [r7, #92]	; 0x5c
 8001d64:	2b20      	cmp	r3, #32
 8001d66:	dde3      	ble.n	8001d30 <change_digit_3+0x940>
		for(int i = 0; i <= 57; ++i)
 8001d68:	6e3b      	ldr	r3, [r7, #96]	; 0x60
 8001d6a:	3301      	adds	r3, #1
 8001d6c:	663b      	str	r3, [r7, #96]	; 0x60
 8001d6e:	6e3b      	ldr	r3, [r7, #96]	; 0x60
 8001d70:	2b39      	cmp	r3, #57	; 0x39
 8001d72:	ddda      	ble.n	8001d2a <change_digit_3+0x93a>
		k = 0;
 8001d74:	2300      	movs	r3, #0
 8001d76:	f8c7 3114 	str.w	r3, [r7, #276]	; 0x114
		for(int i = 0; i <= 57; ++i)
 8001d7a:	2300      	movs	r3, #0
 8001d7c:	65bb      	str	r3, [r7, #88]	; 0x58
 8001d7e:	e021      	b.n	8001dc4 <change_digit_3+0x9d4>
			for(int j = 0; j <= 32; ++j)
 8001d80:	2300      	movs	r3, #0
 8001d82:	657b      	str	r3, [r7, #84]	; 0x54
 8001d84:	e018      	b.n	8001db8 <change_digit_3+0x9c8>
				screen[4861+i*480+j] = none_picture_3[k++];
 8001d86:	f8d7 2114 	ldr.w	r2, [r7, #276]	; 0x114
 8001d8a:	1c53      	adds	r3, r2, #1
 8001d8c:	f8c7 3114 	str.w	r3, [r7, #276]	; 0x114
 8001d90:	6db9      	ldr	r1, [r7, #88]	; 0x58
 8001d92:	460b      	mov	r3, r1
 8001d94:	011b      	lsls	r3, r3, #4
 8001d96:	1a5b      	subs	r3, r3, r1
 8001d98:	015b      	lsls	r3, r3, #5
 8001d9a:	4619      	mov	r1, r3
 8001d9c:	f241 23fd 	movw	r3, #4861	; 0x12fd
 8001da0:	440b      	add	r3, r1
 8001da2:	6d79      	ldr	r1, [r7, #84]	; 0x54
 8001da4:	440b      	add	r3, r1
 8001da6:	4910      	ldr	r1, [pc, #64]	; (8001de8 <change_digit_3+0x9f8>)
 8001da8:	f831 1012 	ldrh.w	r1, [r1, r2, lsl #1]
 8001dac:	4a0d      	ldr	r2, [pc, #52]	; (8001de4 <change_digit_3+0x9f4>)
 8001dae:	f822 1013 	strh.w	r1, [r2, r3, lsl #1]
			for(int j = 0; j <= 32; ++j)
 8001db2:	6d7b      	ldr	r3, [r7, #84]	; 0x54
 8001db4:	3301      	adds	r3, #1
 8001db6:	657b      	str	r3, [r7, #84]	; 0x54
 8001db8:	6d7b      	ldr	r3, [r7, #84]	; 0x54
 8001dba:	2b20      	cmp	r3, #32
 8001dbc:	dde3      	ble.n	8001d86 <change_digit_3+0x996>
		for(int i = 0; i <= 57; ++i)
 8001dbe:	6dbb      	ldr	r3, [r7, #88]	; 0x58
 8001dc0:	3301      	adds	r3, #1
 8001dc2:	65bb      	str	r3, [r7, #88]	; 0x58
 8001dc4:	6dbb      	ldr	r3, [r7, #88]	; 0x58
 8001dc6:	2b39      	cmp	r3, #57	; 0x39
 8001dc8:	ddda      	ble.n	8001d80 <change_digit_3+0x990>
	}

	if(number==80)
 8001dca:	1d3b      	adds	r3, r7, #4
 8001dcc:	681b      	ldr	r3, [r3, #0]
 8001dce:	2b50      	cmp	r3, #80	; 0x50
 8001dd0:	f040 808a 	bne.w	8001ee8 <change_digit_3+0xaf8>
	{
		for(int i = 0; i <= 57; ++i)
 8001dd4:	2300      	movs	r3, #0
 8001dd6:	653b      	str	r3, [r7, #80]	; 0x50
 8001dd8:	e02d      	b.n	8001e36 <change_digit_3+0xa46>
			for(int j = 0; j <= 32; ++j)
 8001dda:	2300      	movs	r3, #0
 8001ddc:	64fb      	str	r3, [r7, #76]	; 0x4c
 8001dde:	e024      	b.n	8001e2a <change_digit_3+0xa3a>
 8001de0:	0805fb48 	.word	0x0805fb48
 8001de4:	20000020 	.word	0x20000020
 8001de8:	08062824 	.word	0x08062824
 8001dec:	080681dc 	.word	0x080681dc
 8001df0:	08065500 	.word	0x08065500
 8001df4:	0806460c 	.word	0x0806460c
				screen[76+4861+i*480+j] = zero_picture_3[k++];
 8001df8:	f8d7 2114 	ldr.w	r2, [r7, #276]	; 0x114
 8001dfc:	1c53      	adds	r3, r2, #1
 8001dfe:	f8c7 3114 	str.w	r3, [r7, #276]	; 0x114
 8001e02:	6d39      	ldr	r1, [r7, #80]	; 0x50
 8001e04:	460b      	mov	r3, r1
 8001e06:	011b      	lsls	r3, r3, #4
 8001e08:	1a5b      	subs	r3, r3, r1
 8001e0a:	015b      	lsls	r3, r3, #5
 8001e0c:	4619      	mov	r1, r3
 8001e0e:	f241 3349 	movw	r3, #4937	; 0x1349
 8001e12:	440b      	add	r3, r1
 8001e14:	6cf9      	ldr	r1, [r7, #76]	; 0x4c
 8001e16:	440b      	add	r3, r1
 8001e18:	49b1      	ldr	r1, [pc, #708]	; (80020e0 <change_digit_3+0xcf0>)
 8001e1a:	f831 1012 	ldrh.w	r1, [r1, r2, lsl #1]
 8001e1e:	4ab1      	ldr	r2, [pc, #708]	; (80020e4 <change_digit_3+0xcf4>)
 8001e20:	f822 1013 	strh.w	r1, [r2, r3, lsl #1]
			for(int j = 0; j <= 32; ++j)
 8001e24:	6cfb      	ldr	r3, [r7, #76]	; 0x4c
 8001e26:	3301      	adds	r3, #1
 8001e28:	64fb      	str	r3, [r7, #76]	; 0x4c
 8001e2a:	6cfb      	ldr	r3, [r7, #76]	; 0x4c
 8001e2c:	2b20      	cmp	r3, #32
 8001e2e:	dde3      	ble.n	8001df8 <change_digit_3+0xa08>
		for(int i = 0; i <= 57; ++i)
 8001e30:	6d3b      	ldr	r3, [r7, #80]	; 0x50
 8001e32:	3301      	adds	r3, #1
 8001e34:	653b      	str	r3, [r7, #80]	; 0x50
 8001e36:	6d3b      	ldr	r3, [r7, #80]	; 0x50
 8001e38:	2b39      	cmp	r3, #57	; 0x39
 8001e3a:	ddce      	ble.n	8001dda <change_digit_3+0x9ea>
		k = 0;
 8001e3c:	2300      	movs	r3, #0
 8001e3e:	f8c7 3114 	str.w	r3, [r7, #276]	; 0x114
		for(int i = 0; i <= 57; ++i)
 8001e42:	2300      	movs	r3, #0
 8001e44:	64bb      	str	r3, [r7, #72]	; 0x48
 8001e46:	e021      	b.n	8001e8c <change_digit_3+0xa9c>
			for(int j = 0; j <= 32; ++j)
 8001e48:	2300      	movs	r3, #0
 8001e4a:	647b      	str	r3, [r7, #68]	; 0x44
 8001e4c:	e018      	b.n	8001e80 <change_digit_3+0xa90>
				screen[38+4861+i*480+j] = eigth_picture_3[k++];
 8001e4e:	f8d7 2114 	ldr.w	r2, [r7, #276]	; 0x114
 8001e52:	1c53      	adds	r3, r2, #1
 8001e54:	f8c7 3114 	str.w	r3, [r7, #276]	; 0x114
 8001e58:	6cb9      	ldr	r1, [r7, #72]	; 0x48
 8001e5a:	460b      	mov	r3, r1
 8001e5c:	011b      	lsls	r3, r3, #4
 8001e5e:	1a5b      	subs	r3, r3, r1
 8001e60:	015b      	lsls	r3, r3, #5
 8001e62:	4619      	mov	r1, r3
 8001e64:	f241 3323 	movw	r3, #4899	; 0x1323
 8001e68:	440b      	add	r3, r1
 8001e6a:	6c79      	ldr	r1, [r7, #68]	; 0x44
 8001e6c:	440b      	add	r3, r1
 8001e6e:	499e      	ldr	r1, [pc, #632]	; (80020e8 <change_digit_3+0xcf8>)
 8001e70:	f831 1012 	ldrh.w	r1, [r1, r2, lsl #1]
 8001e74:	4a9b      	ldr	r2, [pc, #620]	; (80020e4 <change_digit_3+0xcf4>)
 8001e76:	f822 1013 	strh.w	r1, [r2, r3, lsl #1]
			for(int j = 0; j <= 32; ++j)
 8001e7a:	6c7b      	ldr	r3, [r7, #68]	; 0x44
 8001e7c:	3301      	adds	r3, #1
 8001e7e:	647b      	str	r3, [r7, #68]	; 0x44
 8001e80:	6c7b      	ldr	r3, [r7, #68]	; 0x44
 8001e82:	2b20      	cmp	r3, #32
 8001e84:	dde3      	ble.n	8001e4e <change_digit_3+0xa5e>
		for(int i = 0; i <= 57; ++i)
 8001e86:	6cbb      	ldr	r3, [r7, #72]	; 0x48
 8001e88:	3301      	adds	r3, #1
 8001e8a:	64bb      	str	r3, [r7, #72]	; 0x48
 8001e8c:	6cbb      	ldr	r3, [r7, #72]	; 0x48
 8001e8e:	2b39      	cmp	r3, #57	; 0x39
 8001e90:	ddda      	ble.n	8001e48 <change_digit_3+0xa58>
		k = 0;
 8001e92:	2300      	movs	r3, #0
 8001e94:	f8c7 3114 	str.w	r3, [r7, #276]	; 0x114
		for(int i = 0; i <= 57; ++i)
 8001e98:	2300      	movs	r3, #0
 8001e9a:	643b      	str	r3, [r7, #64]	; 0x40
 8001e9c:	e021      	b.n	8001ee2 <change_digit_3+0xaf2>
			for(int j = 0; j <= 32; ++j)
 8001e9e:	2300      	movs	r3, #0
 8001ea0:	63fb      	str	r3, [r7, #60]	; 0x3c
 8001ea2:	e018      	b.n	8001ed6 <change_digit_3+0xae6>
				screen[4861+i*480+j] = none_picture_3[k++];
 8001ea4:	f8d7 2114 	ldr.w	r2, [r7, #276]	; 0x114
 8001ea8:	1c53      	adds	r3, r2, #1
 8001eaa:	f8c7 3114 	str.w	r3, [r7, #276]	; 0x114
 8001eae:	6c39      	ldr	r1, [r7, #64]	; 0x40
 8001eb0:	460b      	mov	r3, r1
 8001eb2:	011b      	lsls	r3, r3, #4
 8001eb4:	1a5b      	subs	r3, r3, r1
 8001eb6:	015b      	lsls	r3, r3, #5
 8001eb8:	4619      	mov	r1, r3
 8001eba:	f241 23fd 	movw	r3, #4861	; 0x12fd
 8001ebe:	440b      	add	r3, r1
 8001ec0:	6bf9      	ldr	r1, [r7, #60]	; 0x3c
 8001ec2:	440b      	add	r3, r1
 8001ec4:	4989      	ldr	r1, [pc, #548]	; (80020ec <change_digit_3+0xcfc>)
 8001ec6:	f831 1012 	ldrh.w	r1, [r1, r2, lsl #1]
 8001eca:	4a86      	ldr	r2, [pc, #536]	; (80020e4 <change_digit_3+0xcf4>)
 8001ecc:	f822 1013 	strh.w	r1, [r2, r3, lsl #1]
			for(int j = 0; j <= 32; ++j)
 8001ed0:	6bfb      	ldr	r3, [r7, #60]	; 0x3c
 8001ed2:	3301      	adds	r3, #1
 8001ed4:	63fb      	str	r3, [r7, #60]	; 0x3c
 8001ed6:	6bfb      	ldr	r3, [r7, #60]	; 0x3c
 8001ed8:	2b20      	cmp	r3, #32
 8001eda:	dde3      	ble.n	8001ea4 <change_digit_3+0xab4>
		for(int i = 0; i <= 57; ++i)
 8001edc:	6c3b      	ldr	r3, [r7, #64]	; 0x40
 8001ede:	3301      	adds	r3, #1
 8001ee0:	643b      	str	r3, [r7, #64]	; 0x40
 8001ee2:	6c3b      	ldr	r3, [r7, #64]	; 0x40
 8001ee4:	2b39      	cmp	r3, #57	; 0x39
 8001ee6:	ddda      	ble.n	8001e9e <change_digit_3+0xaae>
	}

	if(number==90)
 8001ee8:	1d3b      	adds	r3, r7, #4
 8001eea:	681b      	ldr	r3, [r3, #0]
 8001eec:	2b5a      	cmp	r3, #90	; 0x5a
 8001eee:	d17d      	bne.n	8001fec <change_digit_3+0xbfc>
	{
		for(int i = 0; i <= 57; ++i)
 8001ef0:	2300      	movs	r3, #0
 8001ef2:	63bb      	str	r3, [r7, #56]	; 0x38
 8001ef4:	e021      	b.n	8001f3a <change_digit_3+0xb4a>
			for(int j = 0; j <= 32; ++j)
 8001ef6:	2300      	movs	r3, #0
 8001ef8:	637b      	str	r3, [r7, #52]	; 0x34
 8001efa:	e018      	b.n	8001f2e <change_digit_3+0xb3e>
				screen[76+4861+i*480+j] = zero_picture_3[k++];
 8001efc:	f8d7 2114 	ldr.w	r2, [r7, #276]	; 0x114
 8001f00:	1c53      	adds	r3, r2, #1
 8001f02:	f8c7 3114 	str.w	r3, [r7, #276]	; 0x114
 8001f06:	6bb9      	ldr	r1, [r7, #56]	; 0x38
 8001f08:	460b      	mov	r3, r1
 8001f0a:	011b      	lsls	r3, r3, #4
 8001f0c:	1a5b      	subs	r3, r3, r1
 8001f0e:	015b      	lsls	r3, r3, #5
 8001f10:	4619      	mov	r1, r3
 8001f12:	f241 3349 	movw	r3, #4937	; 0x1349
 8001f16:	440b      	add	r3, r1
 8001f18:	6b79      	ldr	r1, [r7, #52]	; 0x34
 8001f1a:	440b      	add	r3, r1
 8001f1c:	4970      	ldr	r1, [pc, #448]	; (80020e0 <change_digit_3+0xcf0>)
 8001f1e:	f831 1012 	ldrh.w	r1, [r1, r2, lsl #1]
 8001f22:	4a70      	ldr	r2, [pc, #448]	; (80020e4 <change_digit_3+0xcf4>)
 8001f24:	f822 1013 	strh.w	r1, [r2, r3, lsl #1]
			for(int j = 0; j <= 32; ++j)
 8001f28:	6b7b      	ldr	r3, [r7, #52]	; 0x34
 8001f2a:	3301      	adds	r3, #1
 8001f2c:	637b      	str	r3, [r7, #52]	; 0x34
 8001f2e:	6b7b      	ldr	r3, [r7, #52]	; 0x34
 8001f30:	2b20      	cmp	r3, #32
 8001f32:	dde3      	ble.n	8001efc <change_digit_3+0xb0c>
		for(int i = 0; i <= 57; ++i)
 8001f34:	6bbb      	ldr	r3, [r7, #56]	; 0x38
 8001f36:	3301      	adds	r3, #1
 8001f38:	63bb      	str	r3, [r7, #56]	; 0x38
 8001f3a:	6bbb      	ldr	r3, [r7, #56]	; 0x38
 8001f3c:	2b39      	cmp	r3, #57	; 0x39
 8001f3e:	ddda      	ble.n	8001ef6 <change_digit_3+0xb06>
		k = 0;
 8001f40:	2300      	movs	r3, #0
 8001f42:	f8c7 3114 	str.w	r3, [r7, #276]	; 0x114
		for(int i = 0; i <= 57; ++i)
 8001f46:	2300      	movs	r3, #0
 8001f48:	633b      	str	r3, [r7, #48]	; 0x30
 8001f4a:	e021      	b.n	8001f90 <change_digit_3+0xba0>
			for(int j = 0; j <= 32; ++j)
 8001f4c:	2300      	movs	r3, #0
 8001f4e:	62fb      	str	r3, [r7, #44]	; 0x2c
 8001f50:	e018      	b.n	8001f84 <change_digit_3+0xb94>
				screen[38+4861+i*480+j] = nine_picture_3[k++];
 8001f52:	f8d7 2114 	ldr.w	r2, [r7, #276]	; 0x114
 8001f56:	1c53      	adds	r3, r2, #1
 8001f58:	f8c7 3114 	str.w	r3, [r7, #276]	; 0x114
 8001f5c:	6b39      	ldr	r1, [r7, #48]	; 0x30
 8001f5e:	460b      	mov	r3, r1
 8001f60:	011b      	lsls	r3, r3, #4
 8001f62:	1a5b      	subs	r3, r3, r1
 8001f64:	015b      	lsls	r3, r3, #5
 8001f66:	4619      	mov	r1, r3
 8001f68:	f241 3323 	movw	r3, #4899	; 0x1323
 8001f6c:	440b      	add	r3, r1
 8001f6e:	6af9      	ldr	r1, [r7, #44]	; 0x2c
 8001f70:	440b      	add	r3, r1
 8001f72:	495f      	ldr	r1, [pc, #380]	; (80020f0 <change_digit_3+0xd00>)
 8001f74:	f831 1012 	ldrh.w	r1, [r1, r2, lsl #1]
 8001f78:	4a5a      	ldr	r2, [pc, #360]	; (80020e4 <change_digit_3+0xcf4>)
 8001f7a:	f822 1013 	strh.w	r1, [r2, r3, lsl #1]
			for(int j = 0; j <= 32; ++j)
 8001f7e:	6afb      	ldr	r3, [r7, #44]	; 0x2c
 8001f80:	3301      	adds	r3, #1
 8001f82:	62fb      	str	r3, [r7, #44]	; 0x2c
 8001f84:	6afb      	ldr	r3, [r7, #44]	; 0x2c
 8001f86:	2b20      	cmp	r3, #32
 8001f88:	dde3      	ble.n	8001f52 <change_digit_3+0xb62>
		for(int i = 0; i <= 57; ++i)
 8001f8a:	6b3b      	ldr	r3, [r7, #48]	; 0x30
 8001f8c:	3301      	adds	r3, #1
 8001f8e:	633b      	str	r3, [r7, #48]	; 0x30
 8001f90:	6b3b      	ldr	r3, [r7, #48]	; 0x30
 8001f92:	2b39      	cmp	r3, #57	; 0x39
 8001f94:	ddda      	ble.n	8001f4c <change_digit_3+0xb5c>
		k = 0;
 8001f96:	2300      	movs	r3, #0
 8001f98:	f8c7 3114 	str.w	r3, [r7, #276]	; 0x114
		for(int i = 0; i <= 57; ++i)
 8001f9c:	2300      	movs	r3, #0
 8001f9e:	62bb      	str	r3, [r7, #40]	; 0x28
 8001fa0:	e021      	b.n	8001fe6 <change_digit_3+0xbf6>
			for(int j = 0; j <= 32; ++j)
 8001fa2:	2300      	movs	r3, #0
 8001fa4:	627b      	str	r3, [r7, #36]	; 0x24
 8001fa6:	e018      	b.n	8001fda <change_digit_3+0xbea>
				screen[4861+i*480+j] = none_picture_3[k++];
 8001fa8:	f8d7 2114 	ldr.w	r2, [r7, #276]	; 0x114
 8001fac:	1c53      	adds	r3, r2, #1
 8001fae:	f8c7 3114 	str.w	r3, [r7, #276]	; 0x114
 8001fb2:	6ab9      	ldr	r1, [r7, #40]	; 0x28
 8001fb4:	460b      	mov	r3, r1
 8001fb6:	011b      	lsls	r3, r3, #4
 8001fb8:	1a5b      	subs	r3, r3, r1
 8001fba:	015b      	lsls	r3, r3, #5
 8001fbc:	4619      	mov	r1, r3
 8001fbe:	f241 23fd 	movw	r3, #4861	; 0x12fd
 8001fc2:	440b      	add	r3, r1
 8001fc4:	6a79      	ldr	r1, [r7, #36]	; 0x24
 8001fc6:	440b      	add	r3, r1
 8001fc8:	4948      	ldr	r1, [pc, #288]	; (80020ec <change_digit_3+0xcfc>)
 8001fca:	f831 1012 	ldrh.w	r1, [r1, r2, lsl #1]
 8001fce:	4a45      	ldr	r2, [pc, #276]	; (80020e4 <change_digit_3+0xcf4>)
 8001fd0:	f822 1013 	strh.w	r1, [r2, r3, lsl #1]
			for(int j = 0; j <= 32; ++j)
 8001fd4:	6a7b      	ldr	r3, [r7, #36]	; 0x24
 8001fd6:	3301      	adds	r3, #1
 8001fd8:	627b      	str	r3, [r7, #36]	; 0x24
 8001fda:	6a7b      	ldr	r3, [r7, #36]	; 0x24
 8001fdc:	2b20      	cmp	r3, #32
 8001fde:	dde3      	ble.n	8001fa8 <change_digit_3+0xbb8>
		for(int i = 0; i <= 57; ++i)
 8001fe0:	6abb      	ldr	r3, [r7, #40]	; 0x28
 8001fe2:	3301      	adds	r3, #1
 8001fe4:	62bb      	str	r3, [r7, #40]	; 0x28
 8001fe6:	6abb      	ldr	r3, [r7, #40]	; 0x28
 8001fe8:	2b39      	cmp	r3, #57	; 0x39
 8001fea:	ddda      	ble.n	8001fa2 <change_digit_3+0xbb2>
	}

	if(number==100)
 8001fec:	1d3b      	adds	r3, r7, #4
 8001fee:	681b      	ldr	r3, [r3, #0]
 8001ff0:	2b64      	cmp	r3, #100	; 0x64
 8001ff2:	f040 80b1 	bne.w	8002158 <change_digit_3+0xd68>
	{
		for(int i = 0; i <= 57; ++i)
 8001ff6:	2300      	movs	r3, #0
 8001ff8:	623b      	str	r3, [r7, #32]
 8001ffa:	e021      	b.n	8002040 <change_digit_3+0xc50>
			for(int j = 0; j <= 32; ++j)
 8001ffc:	2300      	movs	r3, #0
 8001ffe:	61fb      	str	r3, [r7, #28]
 8002000:	e018      	b.n	8002034 <change_digit_3+0xc44>
				screen[76+4861+i*480+j] = zero_picture_3[k++];
 8002002:	f8d7 2114 	ldr.w	r2, [r7, #276]	; 0x114
 8002006:	1c53      	adds	r3, r2, #1
 8002008:	f8c7 3114 	str.w	r3, [r7, #276]	; 0x114
 800200c:	6a39      	ldr	r1, [r7, #32]
 800200e:	460b      	mov	r3, r1
 8002010:	011b      	lsls	r3, r3, #4
 8002012:	1a5b      	subs	r3, r3, r1
 8002014:	015b      	lsls	r3, r3, #5
 8002016:	4619      	mov	r1, r3
 8002018:	f241 3349 	movw	r3, #4937	; 0x1349
 800201c:	440b      	add	r3, r1
 800201e:	69f9      	ldr	r1, [r7, #28]
 8002020:	440b      	add	r3, r1
 8002022:	492f      	ldr	r1, [pc, #188]	; (80020e0 <change_digit_3+0xcf0>)
 8002024:	f831 1012 	ldrh.w	r1, [r1, r2, lsl #1]
 8002028:	4a2e      	ldr	r2, [pc, #184]	; (80020e4 <change_digit_3+0xcf4>)
 800202a:	f822 1013 	strh.w	r1, [r2, r3, lsl #1]
			for(int j = 0; j <= 32; ++j)
 800202e:	69fb      	ldr	r3, [r7, #28]
 8002030:	3301      	adds	r3, #1
 8002032:	61fb      	str	r3, [r7, #28]
 8002034:	69fb      	ldr	r3, [r7, #28]
 8002036:	2b20      	cmp	r3, #32
 8002038:	dde3      	ble.n	8002002 <change_digit_3+0xc12>
		for(int i = 0; i <= 57; ++i)
 800203a:	6a3b      	ldr	r3, [r7, #32]
 800203c:	3301      	adds	r3, #1
 800203e:	623b      	str	r3, [r7, #32]
 8002040:	6a3b      	ldr	r3, [r7, #32]
 8002042:	2b39      	cmp	r3, #57	; 0x39
 8002044:	ddda      	ble.n	8001ffc <change_digit_3+0xc0c>
		k = 0;
 8002046:	2300      	movs	r3, #0
 8002048:	f8c7 3114 	str.w	r3, [r7, #276]	; 0x114
		for(int i = 0; i <= 57; ++i)
 800204c:	f107 0318 	add.w	r3, r7, #24
 8002050:	2200      	movs	r2, #0
 8002052:	601a      	str	r2, [r3, #0]
 8002054:	e031      	b.n	80020ba <change_digit_3+0xcca>
			for(int j = 0; j <= 32; ++j)
 8002056:	f107 0314 	add.w	r3, r7, #20
 800205a:	2200      	movs	r2, #0
 800205c:	601a      	str	r2, [r3, #0]
 800205e:	e020      	b.n	80020a2 <change_digit_3+0xcb2>
				screen[38+4861+i*480+j] = zero_picture_3[k++];
 8002060:	f8d7 2114 	ldr.w	r2, [r7, #276]	; 0x114
 8002064:	1c53      	adds	r3, r2, #1
 8002066:	f8c7 3114 	str.w	r3, [r7, #276]	; 0x114
 800206a:	f107 0318 	add.w	r3, r7, #24
 800206e:	6819      	ldr	r1, [r3, #0]
 8002070:	460b      	mov	r3, r1
 8002072:	011b      	lsls	r3, r3, #4
 8002074:	1a5b      	subs	r3, r3, r1
 8002076:	015b      	lsls	r3, r3, #5
 8002078:	4619      	mov	r1, r3
 800207a:	f241 3323 	movw	r3, #4899	; 0x1323
 800207e:	440b      	add	r3, r1
 8002080:	f107 0114 	add.w	r1, r7, #20
 8002084:	6809      	ldr	r1, [r1, #0]
 8002086:	440b      	add	r3, r1
 8002088:	4915      	ldr	r1, [pc, #84]	; (80020e0 <change_digit_3+0xcf0>)
 800208a:	f831 1012 	ldrh.w	r1, [r1, r2, lsl #1]
 800208e:	4a15      	ldr	r2, [pc, #84]	; (80020e4 <change_digit_3+0xcf4>)
 8002090:	f822 1013 	strh.w	r1, [r2, r3, lsl #1]
			for(int j = 0; j <= 32; ++j)
 8002094:	f107 0314 	add.w	r3, r7, #20
 8002098:	f107 0214 	add.w	r2, r7, #20
 800209c:	6812      	ldr	r2, [r2, #0]
 800209e:	3201      	adds	r2, #1
 80020a0:	601a      	str	r2, [r3, #0]
 80020a2:	f107 0314 	add.w	r3, r7, #20
 80020a6:	681b      	ldr	r3, [r3, #0]
 80020a8:	2b20      	cmp	r3, #32
 80020aa:	ddd9      	ble.n	8002060 <change_digit_3+0xc70>
		for(int i = 0; i <= 57; ++i)
 80020ac:	f107 0318 	add.w	r3, r7, #24
 80020b0:	f107 0218 	add.w	r2, r7, #24
 80020b4:	6812      	ldr	r2, [r2, #0]
 80020b6:	3201      	adds	r2, #1
 80020b8:	601a      	str	r2, [r3, #0]
 80020ba:	f107 0318 	add.w	r3, r7, #24
 80020be:	681b      	ldr	r3, [r3, #0]
 80020c0:	2b39      	cmp	r3, #57	; 0x39
 80020c2:	ddc8      	ble.n	8002056 <change_digit_3+0xc66>
		k = 0;
 80020c4:	2300      	movs	r3, #0
 80020c6:	f8c7 3114 	str.w	r3, [r7, #276]	; 0x114
		for(int i = 0; i <= 57; ++i)
 80020ca:	f107 0310 	add.w	r3, r7, #16
 80020ce:	2200      	movs	r2, #0
 80020d0:	601a      	str	r2, [r3, #0]
 80020d2:	e03c      	b.n	800214e <change_digit_3+0xd5e>
			for(int j = 0; j <= 32; ++j)
 80020d4:	f107 030c 	add.w	r3, r7, #12
 80020d8:	2200      	movs	r2, #0
 80020da:	601a      	str	r2, [r3, #0]
 80020dc:	e02b      	b.n	8002136 <change_digit_3+0xd46>
 80020de:	bf00      	nop
 80020e0:	080681dc 	.word	0x080681dc
 80020e4:	20000020 	.word	0x20000020
 80020e8:	080690d0 	.word	0x080690d0
 80020ec:	08062824 	.word	0x08062824
 80020f0:	08061930 	.word	0x08061930
				screen[4861+i*480+j] = one_picture_3[k++];
 80020f4:	f8d7 2114 	ldr.w	r2, [r7, #276]	; 0x114
 80020f8:	1c53      	adds	r3, r2, #1
 80020fa:	f8c7 3114 	str.w	r3, [r7, #276]	; 0x114
 80020fe:	f107 0310 	add.w	r3, r7, #16
 8002102:	6819      	ldr	r1, [r3, #0]
 8002104:	460b      	mov	r3, r1
 8002106:	011b      	lsls	r3, r3, #4
 8002108:	1a5b      	subs	r3, r3, r1
 800210a:	015b      	lsls	r3, r3, #5
 800210c:	4619      	mov	r1, r3
 800210e:	f241 23fd 	movw	r3, #4861	; 0x12fd
 8002112:	440b      	add	r3, r1
 8002114:	f107 010c 	add.w	r1, r7, #12
 8002118:	6809      	ldr	r1, [r1, #0]
 800211a:	440b      	add	r3, r1
 800211c:	4916      	ldr	r1, [pc, #88]	; (8002178 <change_digit_3+0xd88>)
 800211e:	f831 1012 	ldrh.w	r1, [r1, r2, lsl #1]
 8002122:	4a16      	ldr	r2, [pc, #88]	; (800217c <change_digit_3+0xd8c>)
 8002124:	f822 1013 	strh.w	r1, [r2, r3, lsl #1]
			for(int j = 0; j <= 32; ++j)
 8002128:	f107 030c 	add.w	r3, r7, #12
 800212c:	f107 020c 	add.w	r2, r7, #12
 8002130:	6812      	ldr	r2, [r2, #0]
 8002132:	3201      	adds	r2, #1
 8002134:	601a      	str	r2, [r3, #0]
 8002136:	f107 030c 	add.w	r3, r7, #12
 800213a:	681b      	ldr	r3, [r3, #0]
 800213c:	2b20      	cmp	r3, #32
 800213e:	ddd9      	ble.n	80020f4 <change_digit_3+0xd04>
		for(int i = 0; i <= 57; ++i)
 8002140:	f107 0310 	add.w	r3, r7, #16
 8002144:	f107 0210 	add.w	r2, r7, #16
 8002148:	6812      	ldr	r2, [r2, #0]
 800214a:	3201      	adds	r2, #1
 800214c:	601a      	str	r2, [r3, #0]
 800214e:	f107 0310 	add.w	r3, r7, #16
 8002152:	681b      	ldr	r3, [r3, #0]
 8002154:	2b39      	cmp	r3, #57	; 0x39
 8002156:	ddbd      	ble.n	80020d4 <change_digit_3+0xce4>
	}

	LTDC_Layer2->CFBAR = (uint32_t)screen;
 8002158:	4b09      	ldr	r3, [pc, #36]	; (8002180 <change_digit_3+0xd90>)
 800215a:	4a08      	ldr	r2, [pc, #32]	; (800217c <change_digit_3+0xd8c>)
 800215c:	629a      	str	r2, [r3, #40]	; 0x28
	LTDC->SRCR |= LTDC_SRCR_VBR;
 800215e:	4b09      	ldr	r3, [pc, #36]	; (8002184 <change_digit_3+0xd94>)
 8002160:	6a5b      	ldr	r3, [r3, #36]	; 0x24
 8002162:	4a08      	ldr	r2, [pc, #32]	; (8002184 <change_digit_3+0xd94>)
 8002164:	f043 0302 	orr.w	r3, r3, #2
 8002168:	6253      	str	r3, [r2, #36]	; 0x24
}
 800216a:	bf00      	nop
 800216c:	f507 778e 	add.w	r7, r7, #284	; 0x11c
 8002170:	46bd      	mov	sp, r7
 8002172:	f85d 7b04 	ldr.w	r7, [sp], #4
 8002176:	4770      	bx	lr
 8002178:	08063718 	.word	0x08063718
 800217c:	20000020 	.word	0x20000020
 8002180:	40016904 	.word	0x40016904
 8002184:	40016800 	.word	0x40016800

08002188 <SysTick_Handler>:

void SysTick_Handler(void)
{
 8002188:	b580      	push	{r7, lr}
 800218a:	af00      	add	r7, sp, #0
	++cnt;
 800218c:	4b3c      	ldr	r3, [pc, #240]	; (8002280 <SysTick_Handler+0xf8>)
 800218e:	681b      	ldr	r3, [r3, #0]
 8002190:	3301      	adds	r3, #1
 8002192:	4a3b      	ldr	r2, [pc, #236]	; (8002280 <SysTick_Handler+0xf8>)
 8002194:	6013      	str	r3, [r2, #0]
	// 600000 - 1.5%
	// 599000 - 1.3%
	// 592500 - 0.38%
	// 590000 - 0.038%
	if(cnt == 580000)
 8002196:	4b3a      	ldr	r3, [pc, #232]	; (8002280 <SysTick_Handler+0xf8>)
 8002198:	681b      	ldr	r3, [r3, #0]
 800219a:	4a3a      	ldr	r2, [pc, #232]	; (8002284 <SysTick_Handler+0xfc>)
 800219c:	4293      	cmp	r3, r2
 800219e:	d16c      	bne.n	800227a <SysTick_Handler+0xf2>
	{
		if(minute == 0)
 80021a0:	4b39      	ldr	r3, [pc, #228]	; (8002288 <SysTick_Handler+0x100>)
 80021a2:	781b      	ldrb	r3, [r3, #0]
 80021a4:	2b00      	cmp	r3, #0
 80021a6:	d14f      	bne.n	8002248 <SysTick_Handler+0xc0>
		{
			if(minute_2 == 0)
 80021a8:	4b38      	ldr	r3, [pc, #224]	; (800228c <SysTick_Handler+0x104>)
 80021aa:	781b      	ldrb	r3, [r3, #0]
 80021ac:	2b00      	cmp	r3, #0
 80021ae:	d133      	bne.n	8002218 <SysTick_Handler+0x90>
			{
				if(hour == 0)
 80021b0:	4b37      	ldr	r3, [pc, #220]	; (8002290 <SysTick_Handler+0x108>)
 80021b2:	781b      	ldrb	r3, [r3, #0]
 80021b4:	2b00      	cmp	r3, #0
 80021b6:	d117      	bne.n	80021e8 <SysTick_Handler+0x60>
				{
					cnt = 819;
 80021b8:	4b31      	ldr	r3, [pc, #196]	; (8002280 <SysTick_Handler+0xf8>)
 80021ba:	f240 3233 	movw	r2, #819	; 0x333
 80021be:	601a      	str	r2, [r3, #0]
					hour = 9;
 80021c0:	4b33      	ldr	r3, [pc, #204]	; (8002290 <SysTick_Handler+0x108>)
 80021c2:	2209      	movs	r2, #9
 80021c4:	701a      	strb	r2, [r3, #0]
					--hour_2;
 80021c6:	4b33      	ldr	r3, [pc, #204]	; (8002294 <SysTick_Handler+0x10c>)
 80021c8:	781b      	ldrb	r3, [r3, #0]
 80021ca:	3b01      	subs	r3, #1
 80021cc:	b2da      	uxtb	r2, r3
 80021ce:	4b31      	ldr	r3, [pc, #196]	; (8002294 <SysTick_Handler+0x10c>)
 80021d0:	701a      	strb	r2, [r3, #0]
					change_digit_2(1,hour_2);
 80021d2:	4b30      	ldr	r3, [pc, #192]	; (8002294 <SysTick_Handler+0x10c>)
 80021d4:	781b      	ldrb	r3, [r3, #0]
 80021d6:	4619      	mov	r1, r3
 80021d8:	2001      	movs	r0, #1
 80021da:	f7fe ff19 	bl	8001010 <change_digit_2>
					change_digit_2(2,9);
 80021de:	2109      	movs	r1, #9
 80021e0:	2002      	movs	r0, #2
 80021e2:	f7fe ff15 	bl	8001010 <change_digit_2>
 80021e6:	e03e      	b.n	8002266 <SysTick_Handler+0xde>
				}
				else
				{
					cnt = 683;
 80021e8:	4b25      	ldr	r3, [pc, #148]	; (8002280 <SysTick_Handler+0xf8>)
 80021ea:	f240 22ab 	movw	r2, #683	; 0x2ab
 80021ee:	601a      	str	r2, [r3, #0]
					minute_2 = 6;
 80021f0:	4b26      	ldr	r3, [pc, #152]	; (800228c <SysTick_Handler+0x104>)
 80021f2:	2206      	movs	r2, #6
 80021f4:	701a      	strb	r2, [r3, #0]
					--hour;
 80021f6:	4b26      	ldr	r3, [pc, #152]	; (8002290 <SysTick_Handler+0x108>)
 80021f8:	781b      	ldrb	r3, [r3, #0]
 80021fa:	3b01      	subs	r3, #1
 80021fc:	b2da      	uxtb	r2, r3
 80021fe:	4b24      	ldr	r3, [pc, #144]	; (8002290 <SysTick_Handler+0x108>)
 8002200:	701a      	strb	r2, [r3, #0]
					change_digit_2(2,hour);
 8002202:	4b23      	ldr	r3, [pc, #140]	; (8002290 <SysTick_Handler+0x108>)
 8002204:	781b      	ldrb	r3, [r3, #0]
 8002206:	4619      	mov	r1, r3
 8002208:	2002      	movs	r0, #2
 800220a:	f7fe ff01 	bl	8001010 <change_digit_2>
					change_digit_2(3,6);
 800220e:	2106      	movs	r1, #6
 8002210:	2003      	movs	r0, #3
 8002212:	f7fe fefd 	bl	8001010 <change_digit_2>
 8002216:	e026      	b.n	8002266 <SysTick_Handler+0xde>
				}
			}
			else
			{
				cnt = 414;
 8002218:	4b19      	ldr	r3, [pc, #100]	; (8002280 <SysTick_Handler+0xf8>)
 800221a:	f44f 72cf 	mov.w	r2, #414	; 0x19e
 800221e:	601a      	str	r2, [r3, #0]
				minute = 9;
 8002220:	4b19      	ldr	r3, [pc, #100]	; (8002288 <SysTick_Handler+0x100>)
 8002222:	2209      	movs	r2, #9
 8002224:	701a      	strb	r2, [r3, #0]
				--minute_2;
 8002226:	4b19      	ldr	r3, [pc, #100]	; (800228c <SysTick_Handler+0x104>)
 8002228:	781b      	ldrb	r3, [r3, #0]
 800222a:	3b01      	subs	r3, #1
 800222c:	b2da      	uxtb	r2, r3
 800222e:	4b17      	ldr	r3, [pc, #92]	; (800228c <SysTick_Handler+0x104>)
 8002230:	701a      	strb	r2, [r3, #0]
				change_digit_2(3,minute_2);
 8002232:	4b16      	ldr	r3, [pc, #88]	; (800228c <SysTick_Handler+0x104>)
 8002234:	781b      	ldrb	r3, [r3, #0]
 8002236:	4619      	mov	r1, r3
 8002238:	2003      	movs	r0, #3
 800223a:	f7fe fee9 	bl	8001010 <change_digit_2>
				change_digit_2(4,9);
 800223e:	2109      	movs	r1, #9
 8002240:	2004      	movs	r0, #4
 8002242:	f7fe fee5 	bl	8001010 <change_digit_2>
 8002246:	e00e      	b.n	8002266 <SysTick_Handler+0xde>
			}
		}
		else
		{
			cnt = 136;
 8002248:	4b0d      	ldr	r3, [pc, #52]	; (8002280 <SysTick_Handler+0xf8>)
 800224a:	2288      	movs	r2, #136	; 0x88
 800224c:	601a      	str	r2, [r3, #0]
			--minute;
 800224e:	4b0e      	ldr	r3, [pc, #56]	; (8002288 <SysTick_Handler+0x100>)
 8002250:	781b      	ldrb	r3, [r3, #0]
 8002252:	3b01      	subs	r3, #1
 8002254:	b2da      	uxtb	r2, r3
 8002256:	4b0c      	ldr	r3, [pc, #48]	; (8002288 <SysTick_Handler+0x100>)
 8002258:	701a      	strb	r2, [r3, #0]
			change_digit_2(4,minute);
 800225a:	4b0b      	ldr	r3, [pc, #44]	; (8002288 <SysTick_Handler+0x100>)
 800225c:	781b      	ldrb	r3, [r3, #0]
 800225e:	4619      	mov	r1, r3
 8002260:	2004      	movs	r0, #4
 8002262:	f7fe fed5 	bl	8001010 <change_digit_2>
		}
		change_digit_3(minute*10);
 8002266:	4b08      	ldr	r3, [pc, #32]	; (8002288 <SysTick_Handler+0x100>)
 8002268:	781b      	ldrb	r3, [r3, #0]
 800226a:	461a      	mov	r2, r3
 800226c:	4613      	mov	r3, r2
 800226e:	009b      	lsls	r3, r3, #2
 8002270:	4413      	add	r3, r2
 8002272:	005b      	lsls	r3, r3, #1
 8002274:	4618      	mov	r0, r3
 8002276:	f7ff f8bb 	bl	80013f0 <change_digit_3>
	}
}
 800227a:	bf00      	nop
 800227c:	bd80      	pop	{r7, pc}
 800227e:	bf00      	nop
 8002280:	2003fc20 	.word	0x2003fc20
 8002284:	0008d9a0 	.word	0x0008d9a0
 8002288:	2003fc24 	.word	0x2003fc24
 800228c:	20000000 	.word	0x20000000
 8002290:	20000001 	.word	0x20000001
 8002294:	20000002 	.word	0x20000002

08002298 <main>:

int main(void)
{
 8002298:	b580      	push	{r7, lr}
 800229a:	b082      	sub	sp, #8
 800229c:	af00      	add	r7, sp, #0
	initialization();
 800229e:	f7fd ffff 	bl	80002a0 <initialization>

	// Initialization picture
	LTDC_Layer2->CFBAR = (uint32_t)init_picture;
 80022a2:	4b23      	ldr	r3, [pc, #140]	; (8002330 <main+0x98>)
 80022a4:	4a23      	ldr	r2, [pc, #140]	; (8002334 <main+0x9c>)
 80022a6:	629a      	str	r2, [r3, #40]	; 0x28
	LTDC->SRCR |= LTDC_SRCR_VBR;
 80022a8:	4b23      	ldr	r3, [pc, #140]	; (8002338 <main+0xa0>)
 80022aa:	6a5b      	ldr	r3, [r3, #36]	; 0x24
 80022ac:	4a22      	ldr	r2, [pc, #136]	; (8002338 <main+0xa0>)
 80022ae:	f043 0302 	orr.w	r3, r3, #2
 80022b2:	6253      	str	r3, [r2, #36]	; 0x24
	for(int i = 0; i <= 5000000; ++i);
 80022b4:	2300      	movs	r3, #0
 80022b6:	607b      	str	r3, [r7, #4]
 80022b8:	e002      	b.n	80022c0 <main+0x28>
 80022ba:	687b      	ldr	r3, [r7, #4]
 80022bc:	3301      	adds	r3, #1
 80022be:	607b      	str	r3, [r7, #4]
 80022c0:	687b      	ldr	r3, [r7, #4]
 80022c2:	4a1e      	ldr	r2, [pc, #120]	; (800233c <main+0xa4>)
 80022c4:	4293      	cmp	r3, r2
 80022c6:	ddf8      	ble.n	80022ba <main+0x22>

	// Main picture
	LTDC_Layer2->CFBAR = (uint32_t)main_picture;
 80022c8:	4b19      	ldr	r3, [pc, #100]	; (8002330 <main+0x98>)
 80022ca:	4a1d      	ldr	r2, [pc, #116]	; (8002340 <main+0xa8>)
 80022cc:	629a      	str	r2, [r3, #40]	; 0x28
	LTDC->SRCR |= LTDC_SRCR_VBR;
 80022ce:	4b1a      	ldr	r3, [pc, #104]	; (8002338 <main+0xa0>)
 80022d0:	6a5b      	ldr	r3, [r3, #36]	; 0x24
 80022d2:	4a19      	ldr	r2, [pc, #100]	; (8002338 <main+0xa0>)
 80022d4:	f043 0302 	orr.w	r3, r3, #2
 80022d8:	6253      	str	r3, [r2, #36]	; 0x24

	// Time
	change_digit_1(1,9);
 80022da:	2109      	movs	r1, #9
 80022dc:	2001      	movs	r0, #1
 80022de:	f7fe fcab 	bl	8000c38 <change_digit_1>
	change_digit_1(2,9);
 80022e2:	2109      	movs	r1, #9
 80022e4:	2002      	movs	r0, #2
 80022e6:	f7fe fca7 	bl	8000c38 <change_digit_1>
	change_digit_1(3,6);
 80022ea:	2106      	movs	r1, #6
 80022ec:	2003      	movs	r0, #3
 80022ee:	f7fe fca3 	bl	8000c38 <change_digit_1>
	change_digit_1(4,0);
 80022f2:	2100      	movs	r1, #0
 80022f4:	2004      	movs	r0, #4
 80022f6:	f7fe fc9f 	bl	8000c38 <change_digit_1>

	// Time 2
	change_digit_2(1,9);
 80022fa:	2109      	movs	r1, #9
 80022fc:	2001      	movs	r0, #1
 80022fe:	f7fe fe87 	bl	8001010 <change_digit_2>
	change_digit_2(2,9);
 8002302:	2109      	movs	r1, #9
 8002304:	2002      	movs	r0, #2
 8002306:	f7fe fe83 	bl	8001010 <change_digit_2>
	change_digit_2(3,6);
 800230a:	2106      	movs	r1, #6
 800230c:	2003      	movs	r0, #3
 800230e:	f7fe fe7f 	bl	8001010 <change_digit_2>
	change_digit_2(4,0);
 8002312:	2100      	movs	r1, #0
 8002314:	2004      	movs	r0, #4
 8002316:	f7fe fe7b 	bl	8001010 <change_digit_2>

	// Power
	change_digit_3(100);
 800231a:	2064      	movs	r0, #100	; 0x64
 800231c:	f7ff f868 	bl	80013f0 <change_digit_3>

	SysTick_Config(180);
 8002320:	20b4      	movs	r0, #180	; 0xb4
 8002322:	f7fd ff9b 	bl	800025c <SysTick_Config>
 8002326:	2300      	movs	r3, #0
}
 8002328:	4618      	mov	r0, r3
 800232a:	3708      	adds	r7, #8
 800232c:	46bd      	mov	sp, r7
 800232e:	bd80      	pop	{r7, pc}
 8002330:	40016904 	.word	0x40016904
 8002334:	08069fc4 	.word	0x08069fc4
 8002338:	40016800 	.word	0x40016800
 800233c:	004c4b40 	.word	0x004c4b40
 8002340:	080a9bc4 	.word	0x080a9bc4

08002344 <Reset_Handler>:

  .section .text.Reset_Handler
  .weak Reset_Handler
  .type Reset_Handler, %function
Reset_Handler:
  ldr   r0, =_estack
 8002344:	480d      	ldr	r0, [pc, #52]	; (800237c <LoopForever+0x2>)
  mov   sp, r0          /* set stack pointer */
 8002346:	4685      	mov	sp, r0
/* Call the clock system intitialization function.*/
  bl  SystemInit
 8002348:	f3af 8000 	nop.w

/* Copy the data segment initializers from flash to SRAM */
  ldr r0, =_sdata
 800234c:	480c      	ldr	r0, [pc, #48]	; (8002380 <LoopForever+0x6>)
  ldr r1, =_edata
 800234e:	490d      	ldr	r1, [pc, #52]	; (8002384 <LoopForever+0xa>)
  ldr r2, =_sidata
 8002350:	4a0d      	ldr	r2, [pc, #52]	; (8002388 <LoopForever+0xe>)
  movs r3, #0
 8002352:	2300      	movs	r3, #0
  b LoopCopyDataInit
 8002354:	e002      	b.n	800235c <LoopCopyDataInit>

08002356 <CopyDataInit>:

CopyDataInit:
  ldr r4, [r2, r3]
 8002356:	58d4      	ldr	r4, [r2, r3]
  str r4, [r0, r3]
 8002358:	50c4      	str	r4, [r0, r3]
  adds r3, r3, #4
 800235a:	3304      	adds	r3, #4

0800235c <LoopCopyDataInit>:

LoopCopyDataInit:
  adds r4, r0, r3
 800235c:	18c4      	adds	r4, r0, r3
  cmp r4, r1
 800235e:	428c      	cmp	r4, r1
  bcc CopyDataInit
 8002360:	d3f9      	bcc.n	8002356 <CopyDataInit>

/* Zero fill the bss segment. */
  ldr r2, =_sbss
 8002362:	4a0a      	ldr	r2, [pc, #40]	; (800238c <LoopForever+0x12>)
  ldr r4, =_ebss
 8002364:	4c0a      	ldr	r4, [pc, #40]	; (8002390 <LoopForever+0x16>)
  movs r3, #0
 8002366:	2300      	movs	r3, #0
  b LoopFillZerobss
 8002368:	e001      	b.n	800236e <LoopFillZerobss>

0800236a <FillZerobss>:

FillZerobss:
  str  r3, [r2]
 800236a:	6013      	str	r3, [r2, #0]
  adds r2, r2, #4
 800236c:	3204      	adds	r2, #4

0800236e <LoopFillZerobss>:

LoopFillZerobss:
  cmp r2, r4
 800236e:	42a2      	cmp	r2, r4
  bcc FillZerobss
 8002370:	d3fb      	bcc.n	800236a <FillZerobss>

/* Call static constructors */
  bl __libc_init_array
 8002372:	f000 f811 	bl	8002398 <__libc_init_array>
/* Call the application's entry point.*/
  bl main
 8002376:	f7ff ff8f 	bl	8002298 <main>

0800237a <LoopForever>:

LoopForever:
    b LoopForever
 800237a:	e7fe      	b.n	800237a <LoopForever>
  ldr   r0, =_estack
 800237c:	20050000 	.word	0x20050000
  ldr r0, =_sdata
 8002380:	20000000 	.word	0x20000000
  ldr r1, =_edata
 8002384:	20000004 	.word	0x20000004
  ldr r2, =_sidata
 8002388:	080e97cc 	.word	0x080e97cc
  ldr r2, =_sbss
 800238c:	20000004 	.word	0x20000004
  ldr r4, =_ebss
 8002390:	2003fc28 	.word	0x2003fc28

08002394 <ADC_IRQHandler>:
 * @retval : None
*/
  .section .text.Default_Handler,"ax",%progbits
Default_Handler:
Infinite_Loop:
  b Infinite_Loop
 8002394:	e7fe      	b.n	8002394 <ADC_IRQHandler>
	...

08002398 <__libc_init_array>:
 8002398:	b570      	push	{r4, r5, r6, lr}
 800239a:	4d0d      	ldr	r5, [pc, #52]	; (80023d0 <__libc_init_array+0x38>)
 800239c:	4c0d      	ldr	r4, [pc, #52]	; (80023d4 <__libc_init_array+0x3c>)
 800239e:	1b64      	subs	r4, r4, r5
 80023a0:	10a4      	asrs	r4, r4, #2
 80023a2:	2600      	movs	r6, #0
 80023a4:	42a6      	cmp	r6, r4
 80023a6:	d109      	bne.n	80023bc <__libc_init_array+0x24>
 80023a8:	4d0b      	ldr	r5, [pc, #44]	; (80023d8 <__libc_init_array+0x40>)
 80023aa:	4c0c      	ldr	r4, [pc, #48]	; (80023dc <__libc_init_array+0x44>)
 80023ac:	f000 f818 	bl	80023e0 <_init>
 80023b0:	1b64      	subs	r4, r4, r5
 80023b2:	10a4      	asrs	r4, r4, #2
 80023b4:	2600      	movs	r6, #0
 80023b6:	42a6      	cmp	r6, r4
 80023b8:	d105      	bne.n	80023c6 <__libc_init_array+0x2e>
 80023ba:	bd70      	pop	{r4, r5, r6, pc}
 80023bc:	f855 3b04 	ldr.w	r3, [r5], #4
 80023c0:	4798      	blx	r3
 80023c2:	3601      	adds	r6, #1
 80023c4:	e7ee      	b.n	80023a4 <__libc_init_array+0xc>
 80023c6:	f855 3b04 	ldr.w	r3, [r5], #4
 80023ca:	4798      	blx	r3
 80023cc:	3601      	adds	r6, #1
 80023ce:	e7f2      	b.n	80023b6 <__libc_init_array+0x1e>
 80023d0:	080e97c4 	.word	0x080e97c4
 80023d4:	080e97c4 	.word	0x080e97c4
 80023d8:	080e97c4 	.word	0x080e97c4
 80023dc:	080e97c8 	.word	0x080e97c8

080023e0 <_init>:
 80023e0:	b5f8      	push	{r3, r4, r5, r6, r7, lr}
 80023e2:	bf00      	nop
 80023e4:	bcf8      	pop	{r3, r4, r5, r6, r7}
 80023e6:	bc08      	pop	{r3}
 80023e8:	469e      	mov	lr, r3
 80023ea:	4770      	bx	lr

080023ec <_fini>:
 80023ec:	b5f8      	push	{r3, r4, r5, r6, r7, lr}
 80023ee:	bf00      	nop
 80023f0:	bcf8      	pop	{r3, r4, r5, r6, r7}
 80023f2:	bc08      	pop	{r3}
 80023f4:	469e      	mov	lr, r3
 80023f6:	4770      	bx	lr
